
fbuffer.elf:     file format elf32-littlearm

SYMBOL TABLE:
00008000 l    d  .text	00000000 .text
000087fc l    d  .text.startup	00000000 .text.startup
000089ec l    d  .rodata	00000000 .rodata
00008a04 l    d  .data	00000000 .data
00008a10 l    d  .bss	00000000 .bss
00000000 l    d  .ARM.attributes	00000000 .ARM.attributes
00000000 l    d  .comment	00000000 .comment
00000000 l    d  .debug_line	00000000 .debug_line
00000000 l    d  .debug_info	00000000 .debug_info
00000000 l    d  .debug_abbrev	00000000 .debug_abbrev
00000000 l    d  .debug_aranges	00000000 .debug_aranges
00000000 l    d  .debug_str	00000000 .debug_str
00000000 l    d  .debug_loc	00000000 .debug_loc
00000000 l    d  .debug_frame	00000000 .debug_frame
00000000 l    d  .debug_ranges	00000000 .debug_ranges
00000000 l    df *ABS*	00000000 boot.o
00008018 l       .text	00000000 loop_bss
00008028 l       .text	00000000 done_bss
00000000 l    df *ABS*	00000000 cpu.o
0000808c l       .text	00000000 disable_irq
000080b4 l       .text	00000000 disable_fiq
00000000 l    df *ABS*	00000000 stubs.c
00008a04 l       .data	00000000 .LANCHOR0
00008a04 l     O .data	00000004 brk.0
00000000 l    df *ABS*	00000000 fb.c
00008a10 l       .bss	00000000 .LANCHOR0
00008a08 l       .data	00000000 .LANCHOR1
00000000 l    df *ABS*	00000000 main.c
00000000 l    df *ABS*	00000000 memset.c
000081d8 g     F .text	00000008 _getpid
000089f4 g     O .rodata	00000004 frame_thickness
00008434 g     F .text	000000b8 draw_line
000080f8 g       .text	00000000 disable_mmu
000085b8 g     F .text	00000048 draw_square
00008a00 g     O .rodata	00000004 BLOCK_SIZE
00008074 g       .text	00000000 enable_irq
00008294 g     F .text	00000044 fb_pixel
0000809c g       .text	00000000 enable_fiq
0000817c g     F .text	00000010 _fstat
00008a20 g     O .bss	00000080 msg
00008aa0 g     O .bss	00000004 fbsize
000081c8 g     F .text	00000008 _isatty
000089fc g     O .rodata	00000004 frame_width
00008a10 g     O .bss	00000004 fb
000081ac g     F .text	0000001c _sbrk
00008110 g       .text	00000000 enable_mmu
00008aa8 g       .bss	00000000 heap_addr
00008164 g       .text	00000000 put_lock
000089f8 g     O .rodata	00000004 frame_height
00008a04 g       .data	00000000 data_begin
00008a0c g     O .data	00000002 depth
00010aa8 g       .bss	00000000 stack_addr
00008600 g     F .text	000000e0 draw_block
000082d8 g     F .text	0000012c init_fb
00008210 g     F .text	0000002c gpu_write
0000818c g     F .text	00000008 _lseek
00008aa4 g       .bss	00000000 bss_end
000081e0 g     F .text	00000030 gpu_read
00008044 g       .text	00000000 get_arm_mode
000089ec g     O .rodata	00000004 frame_pos_y
000086e0 g     F .text	0000011c memset
000087fc g     F .text.startup	000001f0 main
000080e4 g       .text	00000000 enable_cache
000080c4 g       .text	00000000 init_core
00008148 g       .text	00000000 get_lock
0000802c g       .text	00000000 delay
000089f0 g     O .rodata	00000004 frame_pos_x
00008050 g       .text	00000000 set_arm_mode
0000823c g     F .text	00000058 gpu_msg
00008134 g       .text	00000000 flush_tlb
0000819c g     F .text	00000008 _write
00008a14 g     O .bss	00000004 pitch
00008068 g       .text	00000000 get_core
00008404 g     F .text	00000030 pack_color
000081d4 g     F .text	00000004 _kill
00008000 g       .text	00000000 start
000081a4 g     F .text	00000008 _read
000081d0 g     F .text	00000004 _exit
00008a10 g       .bss	00000000 bss_begin
000084ec g     F .text	000000cc draw_frame
00008a0a g     O .data	00000002 height
00008a08 g     O .data	00000002 width
00008194 g     F .text	00000008 _close


Contents of section .text:
 8000 d300a0e3 00f021e1 28d09fe5 28009fe5  ......!.(...(...
 8010 28109fe5 0020a0e3 010050e1 010000aa  (.... ....P.....
 8020 0120c0e4 fbffffea f30100ea 010050e2  . ............P.
 8030 fdffff1a 0ef0a0e1 a80a0100 108a0000  ................
 8040 a48a0000 00000fe1 1f0000e2 0ef0a0e1  ................
 8050 00100fe1 1f10c1e3 1f00c0e3 001081e1  ................
 8060 01f029e1 0ef0a0e1 b00f10ee 030000e2  ..).............
 8070 0ef0a0e1 000050e3 0300000a 00000fe1  ......P.........
 8080 8000c0e3 00f029e1 0ef0a0e1 00000fe1  ......).........
 8090 800080e3 00f029e1 0ef0a0e1 000050e3  ......).......P.
 80a0 0300000a 00000fe1 4000c0e3 00f029e1  ........@.....).
 80b0 0ef0a0e1 00000fe1 400080e3 00f029e1  ........@.....).
 80c0 0ef0a0e1 030000e2 a4209fe5 0030e0e3  ......... ...0..
 80d0 003282e7 9c209fe5 001282e7 04f020e3  .2... ........ .
 80e0 0ef0a0e1 100f11ee 060b80e3 040080e3  ................
 80f0 100f01ee 0ef0a0e1 102f11ee 012ac2e3  ........./...*..
 8100 0520c2e3 102f01ee 4ff07ff5 0ef0a0e1  . .../..O.......
 8110 0020e0e3 0c20c2e3 102f03ee 100f02ee  . ... .../......
 8120 300f02ee 102f11ee 052082e3 102f01ee  0..../... .../..
 8130 0ef0a0e1 0020a0e3 172f08ee 9a2f07ee  ..... .../.../..
 8140 4ff07ff5 0ef0a0e1 9f2f90e1 000052e3  O......../....R.
 8150 912f8001 00005203 faffff1a 5ff07ff5  ./....R....._...
 8160 0ef0a0e1 0020a0e3 5ff07ff5 002080e5  ..... .._.... ..
 8170 0ef0a0e1 cc000040 8c000040 023aa0e3  .......@...@.:..
 8180 043081e5 0000a0e3 1eff2fe1 0000a0e3  .0......../.....
 8190 1eff2fe1 0000e0e3 1eff2fe1 0200a0e1  ../......./.....
 81a0 1eff2fe1 0000a0e3 1eff2fe1 0020a0e1  ../......./.. ..
 81b0 043a08e3 003040e3 000093e5 022080e0  .:...0@...... ..
 81c0 002083e5 1eff2fe1 0100a0e3 1eff2fe1  . ..../......./.
 81d0 feffffea 1eff2fe1 0100a0e3 1eff2fe1  ....../......./.
 81e0 0f1000e2 2e2ba0e3 002f43e3 983092e5  .....+.../C..0..
 81f0 010113e3 fcffff1a 800092e5 0f3000e2  .............0..
 8200 010053e1 f8ffff1a 2002a0e1 1eff2fe1  ..S..... ...../.
 8210 0f0000e2 2e2ba0e3 002f43e3 983092e5  .....+.../C..0..
 8220 000053e3 fcffffba 010280e1 2e3ba0e3  ..S..........;..
 8230 003f43e3 a00083e5 1eff2fe1 0fc000e2  .?C......./.....
 8240 2e2ba0e3 002f43e3 983092e5 000053e3  .+.../C..0....S.
 8250 fcffffba 0f30c1e3 0c3083e1 2e2ba0e3  .....0...0...+..
 8260 002f43e3 a03082e5 2e2ba0e3 002f43e3  ./C..0...+.../C.
 8270 983092e5 010113e3 fcffff1a 800092e5  .0..............
 8280 0f3000e2 03005ce1 f8ffff1a 0f00c0e3  .0....\.........
 8290 1eff2fe1 103a08e3 003040e3 00c093e5  ../..:...0@.....
 82a0 00005ce3 1eff2f01 04e02de5 103a08e3  ..\.../...-..:..
 82b0 003040e3 04e093e5 8000a0e1 9e0121e0  .0@...........!.
 82c0 0120cce7 003093e5 011083e0 2224a0e1  . ...0......"$..
 82d0 0120c1e5 04f09de4 70402de9 104a08e3  . ......p@-..J..
 82e0 004040e3 105084e2 7c20a0e3 0010a0e3  .@@..P..| ......
 82f0 140084e2 f90000eb 6830a0e3 103084e5  ........h0...0..
 8300 0130a0e3 043040e3 183084e5 0800a0e3  .0...0@..0......
 8310 1c0084e5 200084e5 1030a0e3 243084e5  .... ....0..$0..
 8320 033008e3 043040e3 2c3084e5 300084e5  .0...0@.,0..0...
 8330 340084e5 082a08e3 002040e3 b010d2e1  4....*... @.....
 8340 381084e5 b230d2e1 3c3084e5 04c008e3  8....0..<0......
 8350 04c040e3 40c084e5 440084e5 480084e5  ..@.@...D...H...
 8360 4c1084e5 503084e5 053008e3 043040e3  L...P0...0...0@.
 8370 543084e5 0430a0e3 583084e5 5c3084e5  T0...0..X0..\0..
 8380 b420d2e1 602084e5 082008e3 1328dfe7  . ..` ... ...(..
 8390 642084e5 683084e5 6c3084e5 0510a0e1  d ..h0..l0......
 83a0 a5ffffeb 143094e5 020153e3 0100000a  .....0....S.....
 83b0 0000a0e3 7080bde8 240094e5 0301c0e3  ....p...$.......
 83c0 000084e5 282094e5 902084e5 081a08e3  ....( ... ......
 83d0 001040e3 38c094e5 b0c0c1e1 3cc094e5  ..@.8.......<...
 83e0 b2c0c1e1 60c094e5 b4c0c1e1 701094e5  ....`.......p...
 83f0 041084e5 0010a0e3 b80000eb 0100a0e3  ................
 8400 7080bde8 083a08e3 003040e3 b430d3e1  p....:...0@..0..
 8410 100053e3 a001a001 2111a001 80028101  ..S.....!.......
 8420 a221a001 00038201 01248211 00088211  .!.......$......
 8430 1eff2fe1 f04f2de9 0cd04de2 34c0dde5  ../..O-...M.4...
 8440 04c08de5 30c09de5 00005ce3 170000da  ....0.....\.....
 8450 017082e0 0040a0e1 006082e0 0150a0e1  .p...@...`...P..
 8460 0290a0e1 03a0a0e1 0080a0e3 000059e3  ..............Y.
 8470 0a0000da 04309de5 000053e3 0d00001a  .....0....S.....
 8480 04b0a0e1 0b00a0e1 0a20a0e1 0510a0e1  ......... ......
 8490 01b08be2 7effffeb 06005be1 f8ffff1a  ....~.....[.....
 84a0 30309de5 018088e2 080053e1 eeffff1a  00........S.....
 84b0 0cd08de2 f08fbde8 05b0a0e1 0b10a0e1  ................
 84c0 0a20a0e1 0400a0e1 01b08be2 70ffffeb  . ..........p...
 84d0 07005be1 f8ffff1a 30309de5 018088e2  ..[.....00......
 84e0 080053e1 e0ffff1a f0ffffea ff20a0e3  ..S.......... ..
 84f0 70402de9 0210a0e1 0200a0e1 0460a0e3  p@-..........`..
 8500 bfffffeb 0050a0e1 8840a0e3 0410a0e1  .....P...@......
 8510 0520a0e1 4f0fa0e3 014084e2 5cffffeb  . ..O....@..\...
 8520 1d0e54e3 f8ffff1a 016056e2 f5ffff1a  ..T......`V.....
 8530 0460a0e3 8840a0e3 0410a0e1 0520a0e1  .`...@....... ..
 8540 790fa0e3 014084e2 51ffffeb 1d0e54e3  y....@..Q.....T.
 8550 f8ffff1a 016056e2 f5ffff1a 0460a0e3  .....`V......`..
 8560 4f4fa0e3 0400a0e1 0520a0e1 8810a0e3  OO....... ......
 8570 014084e2 46ffffeb 790f54e3 f8ffff1a  .@..F...y.T.....
 8580 016056e2 f5ffff1a 0460a0e3 4f4fa0e3  .`V......`..OO..
 8590 0400a0e1 0520a0e1 1d1ea0e3 014084e2  ..... .......@..
 85a0 3bffffeb 790f54e3 f8ffff1a 016056e2  ;...y.T......`V.
 85b0 f5ffff1a 7080bde8 f0472de9 0180a0e1  ....p....G-.....
 85c0 0050a0e1 0260a0e1 109080e2 107081e2  .P...`.......p..
 85d0 0840a0e1 0410a0e1 0620a0e1 0500a0e1  .@....... ......
 85e0 014084e2 2affffeb 040057e1 f8ffff1a  .@..*.....W.....
 85f0 015085e2 090055e1 f4ffff1a f087bde8  .P....U.........
 8600 f0472de9 0060a0e1 0170a0e1 104080e2  .G-..`...p...@..
 8610 0290a0e1 00a0a0e1 105081e2 0780a0e1  .........P......
 8620 0810a0e1 0920a0e1 018088e2 0a00a0e1  ..... ..........
 8630 17ffffeb 050058e1 f8ffff1a 01a08ae2  ......X.........
 8640 04005ae1 f4ffff1a 207087e2 10a046e2  ..Z..... p....F.
 8650 0580a0e1 0810a0e1 0920a0e1 018088e2  ......... ......
 8660 0a00a0e1 0affffeb 070058e1 f8ffff1a  ..........X.....
 8670 01a08ae2 06005ae1 f4ffff1a 06a0a0e1  ......Z.........
 8680 0580a0e1 0810a0e1 0920a0e1 018088e2  ......... ......
 8690 0a00a0e1 fefeffeb 070058e1 f8ffff1a  ..........X.....
 86a0 01a08ae2 04005ae1 f4ffff1a 206086e2  ......Z..... `..
 86b0 0580a0e1 0810a0e1 0920a0e1 018088e2  ......... ......
 86c0 0400a0e1 f2feffeb 070058e1 f8ffff1a  ..........X.....
 86d0 014084e2 060054e1 f4ffff1a f087bde8  .@....T.........
 86e0 030010e3 4000000a 000052e3 012042e2  ....@.....R.. B.
 86f0 1eff2f01 0030a0e1 ffc001e2 020000ea  ../..0..........
 8700 012042e2 010072e3 1eff2f01 01c0c3e4  . B...r.../.....
 8710 030013e3 f9ffff1a 030052e3 2800009a  ..........R.(...
 8720 30402de9 ffe001e2 0ee48ee1 0f0052e3  0@-...........R.
 8730 0ee88ee1 2e00009a 10c042e2 0f40cce3  ..........B..@..
 8740 205083e2 045085e0 2c42a0e1 10c083e2   P...P..,B......
 8750 10e00ce5 0ce00ce5 08e00ce5 04e00ce5  ................
 8760 10c08ce2 05005ce1 f8ffff1a 01c084e2  ......\.........
 8770 0c0012e3 0cc283e0 0f2002e2 1800000a  ......... ......
 8780 043042e2 0330c3e3 043083e2 03308ce0  .0B..0...0...0..
 8790 04e08ce4 0c0053e1 fcffff1a 032002e2  ......S...... ..
 87a0 000052e3 0400000a ff1001e2 022083e0  ..R.......... ..
 87b0 0110c3e4 030052e1 fcffff1a 3040bde8  ......R.....0@..
 87c0 1eff2fe1 000052e3 1eff2f01 ff1001e2  ../...R.../.....
 87d0 022083e0 0110c3e4 030052e1 fcffff1a  . ........R.....
 87e0 1eff2fe1 0c30a0e1 ecffffea 0030a0e1  ../..0.......0..
 87f0 c8ffffea 03c0a0e1 e0ffffea           ............    
Contents of section .text.startup:
 87fc f04f2de9 0cd04de2 ac40a0e3 35feffeb  .O-...M..@..5...
 880c 9c80a0e3 b0feffeb 34ffffeb ff20a0e3  ........4.... ..
 881c 0000a0e3 0210a0e1 f6feffeb 0020a0e3  ............. ..
 882c 0060a0e1 0210a0e1 0200a0e1 f1feffeb  .`..............
 883c 0070a0e1 403204e3 0f3040e3 800609e3  .p..@2...0@.....
 884c 980040e3 04308de5 f4fdffeb 10a048e2  ..@..0........H.
 885c 639fa0e3 0a50a0e1 0510a0e1 0620a0e1  c....P....... ..
 886c 0900a0e1 015085e2 86feffeb 080055e1  .....P........U.
 887c f8ffff1a 019089e2 670f59e3 f4ffff1a  ........g.Y.....
 888c 5f9fa0e3 0850a0e1 0510a0e1 0620a0e1  _....P....... ..
 889c 0900a0e1 015085e2 7afeffeb 040055e1  .....P..z.....U.
 88ac f8ffff1a 019089e2 630f59e3 f4ffff1a  ........c.Y.....
 88bc 09b0a0e1 0850a0e1 0510a0e1 0620a0e1  .....P....... ..
 88cc 0b00a0e1 015085e2 6efeffeb 040055e1  .....P..n.....U.
 88dc f8ffff1a 01b08be2 670f5be3 f4ffff1a  ........g.[.....
 88ec 0850a0e1 0510a0e1 0620a0e1 0b00a0e1  .P....... ......
 88fc 015085e2 63feffeb 040055e1 f8ffff1a  .P..c.....U.....
 890c 01b08be2 6b0f5be3 f4ffff1a 04009de5  ....k.[.........
 891c c2fdffeb 730f58e3 2f00000a 0a50a0e1  ....s.X./....P..
 892c 0510a0e1 0720a0e1 0900a0e1 015085e2  ..... .......P..
 893c 54feffeb 080055e1 f8ffff1a 019089e2  T.....U.........
 894c 670f59e3 f4ffff1a 5f9fa0e3 0850a0e1  g.Y....._....P..
 895c 0510a0e1 0720a0e1 0900a0e1 015085e2  ..... .......P..
 896c 48feffeb 040055e1 f8ffff1a 019089e2  H.....U.........
 897c 630f59e3 f4ffff1a 0850a0e1 0510a0e1  c.Y......P......
 898c 0720a0e1 0900a0e1 015085e2 3dfeffeb  . .......P..=...
 899c 040055e1 f8ffff1a 019089e2 670f59e3  ..U.........g.Y.
 89ac f4ffff1a 0850a0e1 0510a0e1 0720a0e1  .....P....... ..
 89bc 0900a0e1 015085e2 32feffeb 040055e1  .....P..2.....U.
 89cc f8ffff1a 019089e2 6b0f59e3 f4ffff1a  ........k.Y.....
 89dc 108088e2 104084e2 9bffffea feffffea  .....@..........
Contents of section .rodata:
 89ec 88000000 3c010000 04000000 40010000  ....<.......@...
 89fc a0000000 10000000                    ........        
Contents of section .data:
 8a04 a88a0000 20035802 1000               .... .X...      
Contents of section .ARM.attributes:
 0000 412d0000 00616561 62690001 23000000  A-...aeabi..#...
 0010 0541524d 20763700 060a0741 08010902  .ARM v7....A....
 0020 12041401 15011703 18011a01 2201      ............".  
Contents of section .comment:
 0000 4743433a 20283135 3a31302e 332d3230  GCC: (15:10.3-20
 0010 32312e30 372d3429 2031302e 332e3120  21.07-4) 10.3.1 
 0020 32303231 30363231 20287265 6c656173  20210621 (releas
 0030 652900                               e).             
Contents of section .debug_line:
 0000 42000000 03001d00 00000201 fb0e0d00  B...............
 0010 01010101 00000001 00000100 626f6f74  ............boot
 0020 2e730000 00000000 05020080 0000192f  .s............./
 0030 2f352f2f 302f2f2f 34312f2f 03672e35  /5//0///41//.g.5
 0040 2f020200 01018100 00000300 1c000000  /...............
 0050 0201fb0e 0d000101 01010000 00010000  ................
 0060 01006370 752e7300 00000000 00050244  ..cpu.s........D
 0070 80000003 0e012f2f 342f2f2f 2f2f342f  ......//4/////4/
 0080 2f342f2f 2f2f2f30 2f2f2f34 2f2f2f2f  /4/////0///4////
 0090 2f302f2f 2f342f2f 2f2f2f2f 2f342f2f  /0///4///////4//
 00a0 2f2f342f 2f2f2f2f 342f2f2f 2f2f302f  //4/////4/////0/
 00b0 2f342f2f 2f2f352f 2f2f2f2f 2f342f2f  /4////5//////4//
 00c0 2f03b67f 2e310202 00010161 01000003  /....1.....a....
 00d0 00b10000 000201fb 0e0d0001 01010100  ................
 00e0 00000100 00012f75 73722f69 6e636c75  ....../usr/inclu
 00f0 64652f6e 65776c69 622f6d61 6368696e  de/newlib/machin
 0100 65002f75 73722f69 6e636c75 64652f6e  e./usr/include/n
 0110 65776c69 622f7379 73000073 74756273  ewlib/sys..stubs
 0120 2e630000 00005f64 65666175 6c745f74  .c...._default_t
 0130 79706573 2e680001 00005f74 79706573  ypes.h...._types
 0140 2e680002 00005f73 7464696e 742e6800  .h...._stdint.h.
 0150 0200005f 74696d65 76616c2e 68000200  ..._timeval.h...
 0160 005f7469 6d657370 65632e68 00020000  ._timespec.h....
 0170 74797065 732e6800 02000073 7461742e  types.h....stat.
 0180 68000200 00000527 0005027c 81000018  h......'...|....
 0190 05031305 0f060105 03064b05 0106132e  ..........K.....
 01a0 052e0630 05031305 0106132e 05140630  ...0...........0
 01b0 05031305 0106132e 052b0630 05041305  .........+.0....
 01c0 0106132e 052a0630 05041305 0106132e  .....*.0........
 01d0 05170630 06010503 062f1313 05080601  ...0...../......
 01e0 05030667 05070601 2e050306 2f050106  ...g......../...
 01f0 13051706 30050313 05010613 2e051806  ....0...........
 0200 30050400 02040113 050b0002 04010105  0...............
 0210 09000204 0101051e 31050413 05010613  ........1.......
 0220 05130630 05041305 01061302 04000101  ...0............
 0230 0c030000 03008700 00000201 fb0e0d00  ................
 0240 01010101 00000001 0000012f 7573722f  .........../usr/
 0250 696e636c 7564652f 6e65776c 69622f6d  include/newlib/m
 0260 61636869 6e65002f 7573722f 696e636c  achine./usr/incl
 0270 7564652f 6e65776c 69622f73 79730000  ude/newlib/sys..
 0280 66622e63 00000000 5f646566 61756c74  fb.c...._default
 0290 5f747970 65732e68 00010000 5f737464  _types.h...._std
 02a0 696e742e 68000200 0062636d 2e680000  int.h....bcm.h..
 02b0 00003c62 75696c74 2d696e3e 00000000  ..<built-in>....
 02c0 00050100 0502e081 00000321 01050413  ...........!....
 02d0 050a0601 050e3205 0a000204 01064b05  ......2.......K.
 02e0 0d000204 0111050e 00020401 0601050d  ................
 02f0 00020401 2e050706 4c050906 01050706  ........L.......
 0300 2f050e06 01050a2e 064b0501 06142e06  /........K......
 0310 34050413 050a0601 0504062f 050b0601  4........../....
 0320 05070002 0401064b 050a0002 04011105  .......K........
 0330 0b000204 01060105 0a000204 012e0504  ................
 0340 064c0522 06010517 2e050167 06340504  .L.".......g.4..
 0350 1313050a 06010504 0631050b 06010507  .........1......
 0360 00020401 064b050a 00020401 11050b00  .....K..........
 0370 02040106 01050a00 0204012e 0504064c  ...............L
 0380 051c0601 05272e05 172e050e 6b050a00  .....'......k...
 0390 02040106 4b050d00 02040111 050e0002  ....K...........
 03a0 04010601 050d0002 04012e05 07064c05  ..............L.
 03b0 09060105 07062f05 0e060105 0a2e064b  ....../........K
 03c0 05010614 2e06030c 2e050413 050b0601  ................
 03d0 05076605 01490504 06310515 0601050d  ..f..I...1......
 03e0 4a050406 33050e06 0105082e 0504062f  J...3........../
 03f0 050c0601 0504062f 05100601 05144a05  ......./......J.
 0400 102e0501 35063505 0432d705 0b060105  ....5.5..2......
 0410 04064b13 050b0601 05040667 050b0601  ..K........g....
 0420 0504064b 050b0601 0504062f 050b0601  ...K......./....
 0430 0504064b 13050b06 01050406 67050b06  ...K........g...
 0440 01050406 2f050b06 01050406 2f050c06  ..../......./...
 0450 01050406 83050c06 01050406 4b050c06  ............K...
 0460 01050406 67050c06 01050406 2f050c06  ....g......./...
 0470 01050406 2f050c06 01050406 2f050c06  ..../......./...
 0480 01050406 2f050c06 01050406 67050c06  ..../.......g...
 0490 01050406 4b050c06 01050406 2f050c06  ....K......./...
 04a0 01050406 4b050c06 01050406 67050c06  ....K.......g...
 04b0 01050406 2f050c06 01050406 2f13174b  ..../......./..K
 04c0 05070601 050e6705 0103112e 05040603  ......g.........
 04d0 742e051c 06010507 4a050406 2f051006  t.......J.../...
 04e0 01050b2e 0504062f 050a0601 05040683  ......./........
 04f0 050b0601 0504064b 050a0601 0504064b  .......K.......K
 0500 050a0601 0504064f 4b050b06 01050106  .......OK.......
 0510 51050413 050e0601 05074a06 4c131313  Q.........J.L...
 0520 13130512 06110518 2e05132f 05192e2e  .........../....
 0530 05040630 05200601 05014b02 02000101  ...0. ....K.....
 0540 bc040000 03002e00 00000201 fb0e0d00  ................
 0550 01010101 00000001 00000100 6d61696e  ............main
 0560 2e630000 00006662 2e680000 00006370  .c....fb.h....cp
 0570 752e6800 00000000 05010005 02348400  u.h..........4..
 0580 00031101 05041305 09010514 01050106  ................
 0590 114a0504 4b050d08 20051706 2f050706  .J..K... .../...
 05a0 01050a06 bb050706 65050a2f 0523062d  ........e../.#.-
 05b0 05170105 0706014a 05230611 05040601  .......J.#......
 05c0 05242e05 14062e05 0406014a 0501154a  .$.........J...J
 05d0 050a062d 05070665 050a2f05 23062d05  ...-...e../.#.-.
 05e0 17010507 06010523 06490504 06010524  .......#.I.....$
 05f0 2e051406 2e050406 01050106 6c050413  ............l...
 0600 05150601 05012d05 152f0504 06a00506  ......-../......
 0610 03750105 04140509 01051401 05171305  .u..............
 0620 01061705 0a062a05 07066505 0a2f0523  ......*...e../.#
 0630 062d0517 01050706 01052306 49051401  .-........#.I...
 0640 05040601 66051706 13051506 18050a06  ....f...........
 0650 29050706 65050a2f 0523062d 05170105  )...e../.#.-....
 0660 07060105 23064905 14010504 06016605  ....#.I.......f.
 0670 17061306 2e050a06 13050706 65050a2f  ............e../
 0680 0523062d 05170105 07060105 23064905  .#.-........#.I.
 0690 14010504 06016605 17061306 2e050a06  ......f.........
 06a0 13050706 65050a2f 0523062d 05170105  ....e../.#.-....
 06b0 07060105 23064905 14010504 06010501  ....#.I.........
 06c0 06031066 05041305 09010514 01050106  ...f............
 06d0 112e0517 06a0050a 00020403 2f050700  ............/...
 06e0 02040306 65050a00 0204032f 05270002  ....e....../.'..
 06f0 0403062d 05170002 04030105 07000204  ...-............
 0700 03060105 24000204 02064905 14000204  ....$.....I.....
 0710 02010504 00020402 06010002 04022e05  ................
 0720 01066c06 012e0504 062f0501 06110506  ..l....../......
 0730 06037866 05141405 01061805 17064505  ..xf..........E.
 0740 01061705 0a062a05 07064905 0a2f0527  ......*...I../.'
 0750 06490517 01050706 01052406 49051401  .I........$.I...
 0760 05040601 2e4a061a 05060376 01051414  .....J.....v....
 0770 062e0504 1a051706 03792e05 01061705  .........y......
 0780 0a062a05 07064905 0a2f0527 06490517  ..*...I../.'.I..
 0790 01050706 01052406 49051401 05040601  ......$.I.......
 07a0 2e660517 06130501 0617050a 062a0507  .f...........*..
 07b0 0649050a 2f052706 49051701 05070601  .I../.'.I.......
 07c0 05240649 05140105 0406012e 4a06030a  .$.I........J...
 07d0 01050603 74010514 1405172f 062e050a  ....t....../....
 07e0 06130507 0649050a 2f052706 49051701  .....I../.'.I...
 07f0 05070601 05240649 05140105 0406012e  .....$.I........
 0800 02060001 01050100 0502fc87 00000331  ...............1
 0810 01050413 05010611 0504030d 4a03742e  ............J.t.
 0820 062f0603 0b01050e 03752e05 04063130  ./.......u....10
 0830 05140601 05158305 142d0504 062f0515  .........-.../..
 0840 06014a05 07030a4a 05044505 074f0504  ..J....J..E..O..
 0850 0603782e 1314062e 06300507 14050603  ..x......0......
 0860 66010514 0d050406 031b0105 17060366  f..............f
 0870 2e050406 031a0105 0a060367 2e050706  ...........g....
 0880 65050a2f 0527062d 05170105 07060105  e../.'.-........
 0890 24064905 14010504 06012e66 05170613  $.I........f....
 08a0 05040603 1a01050a 0603672e 05070665  ..........g....e
 08b0 050a2f05 27062d05 17010507 06010524  ../.'.-........$
 08c0 06490514 01050406 012e6605 17061306  .I........f.....
 08d0 2e050a06 13050706 65050a2f 0527062d  ........e../.'.-
 08e0 05170105 07060105 24064905 14010504  ........$.I.....
 08f0 06012e4a 05170613 062e050a 06130507  ...J............
 0900 0665050a 2f052706 2d051701 05070601  .e../.'.-.......
 0910 05240649 05140105 0406012e 4a050706  .$.I........J...
 0920 0320014b 050a0601 05170603 604a062e  . .K........`J..
 0930 050a0613 05070665 050a2f05 27062d05  .......e../.'.-.
 0940 17010507 06010524 06490514 01050406  .......$.I......
 0950 012e6605 17061306 2e050a06 13050706  ..f.............
 0960 65050a2f 0527062d 05170105 07060105  e../.'.-........
 0970 24064905 14010504 06012e4a 05170613  $.I........J....
 0980 062e050a 06130507 0665050a 2f052706  .........e../.'.
 0990 2d051701 05070601 05240649 05140105  -........$.I....
 09a0 0406012e 4a051706 13062e05 0a061305  ....J...........
 09b0 07066505 0a2f0527 062d0517 01050706  ..e../.'.-......
 09c0 01052406 49051401 05040601 2e9e050a  ..$.I...........
 09d0 00020401 06032201 050d0002 04011305  ......".........
 09e0 10000204 0111050a 00020401 01050d00  ................
 09f0 02040113 05100002 04011102 02000101  ................
 0a00 d1010000 0300b900 00000201 fb0e0d00  ................
 0a10 01010101 00000001 0000012e 2e2f2e2e  ............./..
 0a20 2f2e2e2f 2e2e2f2e 2e2f6e65 776c6962  /../../../newlib
 0a30 2f6c6962 632f7374 72696e67 002f7573  /libc/string./us
 0a40 722f6c69 622f6763 632f6172 6d2d6e6f  r/lib/gcc/arm-no
 0a50 6e652d65 6162692f 31302e33 2e312f69  ne-eabi/10.3.1/i
 0a60 6e636c75 6465002f 6275696c 642f6e65  nclude./build/ne
 0a70 776c6962 2d704233 3064652f 6e65776c  wlib-pB30de/newl
 0a80 69622d33 2e332e30 2f6e6577 6c69622f  ib-3.3.0/newlib/
 0a90 6c696263 2f696e63 6c756465 00006d65  libc/include..me
 0aa0 6d736574 2e630001 00007374 64646566  mset.c....stddef
 0ab0 2e680002 00007374 72696e67 2e680003  .h....string.h..
 0ac0 00000005 01000502 e0860000 03280105  .............(..
 0ad0 03131513 13131505 09010507 4c050a06  ............L...
 0ae0 01050c2e 050a2e05 0903752e 0510030c  ..........u.....
 0af0 2e050c49 050a2e05 07064a05 0913050e  ...I......J.....
 0b00 06010509 062b0503 52050606 01050103  .....+..R.......
 0b10 6e4a0510 35050706 030e2e16 050e0601  nJ..5...........
 0b20 0507062f 050d0617 050e2905 07062f05  .../......).../.
 0b30 1401050d 16062e05 0b06bc05 1b060105  ................
 0b40 0b062f05 1b060105 0b062f05 1b060105  ../......./.....
 0b50 0b062f05 1b060105 0b062f05 0d037a01  ../......./...z.
 0b60 062e0518 4f050d32 05182a05 0d2f0631  ....O..2..*../.1
 0b70 062e2e05 0b066805 1b060105 0b062f05  ......h......./.
 0b80 0d0f064d 05090636 06010510 035a4a2e  ...M...6.....ZJ.
 0b90 05050603 272e050a 06010509 062d0601  ....'........-..
 0ba0 05014e2e 0509062a 06010510 035a4a2e  ..N....*.....ZJ.
 0bb0 05050603 272e050a 06010509 062d0601  ....'........-..
 0bc0 05180371 662e0509 035d2e05 0d031e4a  ...qf....].....J
 0bd0 02040001 01                          .....           
Contents of section .debug_info:
 0000 22000000 02000000 00000401 00000000  "...............
 0010 00800000 44800000 00000000 07000000  ....D...........
 0020 3a000000 01802200 00000200 14000000  :.....".........
 0030 04014600 00004480 00007c81 00004600  ..F...D...|...F.
 0040 00000700 00003a00 00000180 ff040000  ......:.........
 0050 04002800 00000401 fb000000 0c160200  ..(.............
 0060 00070000 007c8100 00640000 00cb0000  .....|...d......
 0070 00020106 0a020000 03640000 00022b18  .........d....+.
 0080 38000000 02010808 02000002 02051e02  8...............
 0090 00000202 079c0100 00020405 b9000000  ................
 00a0 03610100 00024f19 60000000 02040778  .a....O.`......x
 00b0 00000002 0805b400 00000208 07730000  .............s..
 00c0 00039e00 000002c8 1e670000 00040405  .........g......
 00d0 696e7400 0204077d 00000002 0804d901  int....}........
 00e0 000003d2 00000003 1e0e4d00 000003ec  ..........M.....
 00f0 01000003 220e4d00 0000034d 00000003  ....".M....M....
 0100 2e0e4d00 0000036c 01000003 380f3f00  ..M....l....8.?.
 0110 00000348 02000003 3c184600 00000354  ...H....<.F....T
 0120 00000003 3f184600 00000338 02000003  ....?.F....8....
 0130 4b184600 000003c9 00000003 5a145400  K.F.........Z.T.
 0140 0000034c 00000003 6610ae00 00000504  ...L....f.......
 0150 03af0100 0003d118 46000000 06041601  ........F.......
 0160 00000201 08110200 00036600 00000418  ..........f.....
 0170 132c0000 00036301 00000430 14540000  .,....c....0.T..
 0180 0003f801 0000052a 12750000 00078c01  .......*.u......
 0190 00001006 2f086901 000008e5 01000006  ..../.i.........
 01a0 30093501 00000008 d1010000 0631074d  0.5..........1.M
 01b0 00000008 0003d400 00000761 14960000  ...........a....
 01c0 0003ee01 00000766 15a20000 00033a02  .......f......:.
 01d0 0000078b 12de0000 00034e00 0000079d  ..........N.....
 01e0 12f60000 00036e01 000007a1 12ba0000  ......n.........
 01f0 00034a02 000007a5 12c60000 00035600  ..J...........V.
 0200 000007a9 12d20000 0003cb00 000007bd  ................
 0210 12ea0000 0003b101 000007c2 13040100  ................
 0220 0007e600 00005808 1b089902 0000086b  ......X........k
 0230 02000008 1d0a9901 00000008 c2000000  ................
 0240 081e0a81 01000002 08c90100 00081f0a  ................
 0250 bd010000 0408ff01 00000820 0bc90100  ........... ....
 0260 00080874 01000008 210aa501 00000a08  ...t....!.......
 0270 5d020000 08220ab1 0100000c 08400200  ]....".......@..
 0280 0008230a 99010000 0e08c101 00000824  ..#............$
 0290 0a8d0100 001008f3 00000008 2a134101  ............*.A.
 02a0 00001808 72020000 082b1341 01000028  ....r....+.A...(
 02b0 085c0000 00082c13 41010000 38082d02  .\....,.A...8.-.
 02c0 0000082d 11750100 0048088a 00000008  ...-.u...H......
 02d0 2e0c6901 00004c08 7b010000 08300999  ..i...L.{....0..
 02e0 02000050 00094d00 0000a902 00000a88  ...P..M.........
 02f0 00000001 000b9400 00000105 11290100  .............)..
 0300 000ceb00 00000130 05810000 00d88100  .......0........
 0310 00080000 00019c0d 57020000 012c06d4  ........W....,..
 0320 81000004 00000001 9cfe0200 000e7069  ..............pi
 0330 6400012c 10810000 0001500e 73696700  d..,......P.sig.
 0340 012c1981 00000001 51000fae 00000001  .,......Q.......
 0350 2806d081 00000400 0000019c 29030000  (...........)...
 0360 10640200 00012810 81000000 02000000  .d....(.........
 0370 00000000 0011b901 00000124 05810000  ...........$....
 0380 00c88100 00080000 00019c58 03000010  ...........X....
 0390 28020000 01241181 00000019 00000015  (....$..........
 03a0 00000000 117f0200 00011c07 02010000  ................
 03b0 ac810000 1c000000 019cad03 0000107a  ...............z
 03c0 02000001 1c118100 00004000 00003a00  ..........@...:.
 03d0 00001262 726b0001 1d13ad03 00000503  ...brk..........
 03e0 048a0000 136e0000 00011e0c ad030000  .....n..........
 03f0 6e000000 6c000000 0006041d 01000011  n...l...........
 0400 b3020000 01180581 000000a4 81000008  ................
 0410 00000001 9cfd0300 00146664 00011810  ..........fd....
 0420 81000000 85000000 81000000 0e627566  .............buf
 0430 0001181a 10010000 0151155b 01000001  .........Q.[....
 0440 18238100 00000152 0011e602 00000114  .#.....R........
 0450 05810000 009c8100 00080000 00019c47  ...............G
 0460 04000014 66640001 14118100 0000aa00  ....fd..........
 0470 0000a600 00000e62 75660001 141b1001  .......buf......
 0480 00000151 155b0100 00011424 81000000  ...Q.[.....$....
 0490 01520011 85010000 01100581 00000094  .R..............
 04a0 81000008 00000001 9c750400 00146664  .........u....fd
 04b0 00011010 81000000 cf000000 cb000000  ................
 04c0 0011dd00 0000010c 05810000 008c8100  ................
 04d0 00080000 00019cc0 04000010 28020000  ............(...
 04e0 010c1081 000000f4 000000f0 00000015  ................
 04f0 50020000 010c1a81 00000001 51159501  P...........Q...
 0500 0000010c 26810000 00015200 11e40000  ....&.....R.....
 0510 00010705 81000000 7c810000 10000000  ........|.......
 0520 019cfc04 00001028 02000001 07108100  .......(........
 0530 00001901 00001501 00000e73 74000107  ...........st...
 0540 23fc0400 00015100 0604d501 000000d1  #.....Q.........
 0550 03000004 009c0100 000401fb 0000000c  ................
 0560 93020000 07000000 e0810000 54020000  ............T...
 0570 30020000 0204077d 00000003 0405696e  0......}......in
 0580 74000208 05b40000 00020804 d9010000  t...............
 0590 0201060a 02000004 64000000 022b1854  ........d....+.T
 05a0 00000002 01080802 00000202 051e0200  ................
 05b0 0004d802 00000239 196e0000 00020207  .......9.n......
 05c0 9c010000 020405b9 00000004 61010000  ............a...
 05d0 024f1988 00000002 04077800 00000208  .O........x.....
 05e0 07730000 00020108 11020000 04660000  .s...........f..
 05f0 00031813 48000000 04da0200 00032414  ....H.........$.
 0600 62000000 04630100 00033014 7c000000  b....c....0.|...
 0610 05240487 09190100 0006b402 00000488  .$..............
 0620 0db50000 000006ed 02000004 8c0db500  ................
 0630 00001006 b9020000 048d0db5 00000014  ................
 0640 06640200 00048e0d b5000000 1806d102  .d..............
 0650 0000048f 0db50000 001c06e7 02000004  ................
 0660 900db500 00002000 04850200 00049103  ...... .........
 0670 c1000000 07666200 01130a36 01000005  .....fb....6....
 0680 03108a00 0008049d 00000009 a9020000  ................
 0690 01180ab5 00000005 03a08a00 00093504  ..............5.
 06a0 00000119 0aa90000 00050308 8a000009  ................
 06b0 e3030000 011919a9 00000005 030a8a00  ................
 06c0 0009f202 0000011a 0aa90000 0005030c  ................
 06d0 8a000009 f8020000 011b0ab5 00000005  ................
 06e0 03148a00 000ab500 0000a601 00000b25  ...............%
 06f0 0000001f 000c6d73 67000156 27960100  ......msg..V'...
 0700 00100503 208a0000 0d040300 0001af0a  .... ...........
 0710 b5000000 04840000 30000000 019c2802  ........0.....(.
 0720 00000e72 0001af1d 9d000000 40010000  ...r........@...
 0730 3a010000 0e670001 af289d00 00007801  :....g...(....x.
 0740 00007201 00000e62 0001af33 9d000000  ..r....b...3....
 0750 b0010000 aa010000 0f148400 00140000  ................
 0760 00107265 730001b6 10a90000 00ea0100  ..res...........
 0770 00e20100 0000000d 15030000 0173068a  .............s..
 0780 020000d8 8200002c 01000001 9c8a0200  .......,........
 0790 0011f882 0000c903 00006102 00001201  ..........a.....
 07a0 50027414 12015101 30120152 02087c00  P.t...Q.0..R..|.
 07b0 11a48300 00f20200 007a0200 00120150  .........z.....P
 07c0 01381201 51027500 0013fc83 0000c903  .8..Q.u.........
 07d0 00001201 51013000 00020102 0f030000  ....Q.0.........
 07e0 14a00200 00015b06 94820000 44000000  ......[.....D...
 07f0 019cf202 00000e78 00015b18 25000000  .......x..[.%...
 0800 5f020000 5b020000 0e790001 5b242500  _...[....y..[$%.
 0810 00008402 00008002 00000e63 00015b30  ...........c..[0
 0820 25000000 a9020000 a5020000 10706f73  %............pos
 0830 00015f0d b5000000 d0020000 ca020000  .._.............
 0840 000d9802 0000013d 0b410300 003c8200  .......=.A...<..
 0850 00580000 00019c41 03000015 fe020000  .X.....A........
 0860 013d172c 0000000b 03000007 03000016  .=.,............
 0870 6d736700 013d2841 03000001 51107600  msg..=(A....Q.v.
 0880 013f0db5 0000002d 03000029 03000000  .?.....-...)....
 0890 0804b500 000014e3 02000001 32061082  ............2...
 08a0 00002c00 0000019c 7e030000 15fe0200  ..,.....~.......
 08b0 00013214 2c000000 51030000 4b030000  ..2.,...Q...K...
 08c0 16760001 3224b500 00000151 000db002  .v..2$.....Q....
 08d0 00000121 01b50000 00e08100 00300000  ...!.........0..
 08e0 00019cc9 03000015 fe020000 01210e2c  .............!.,
 08f0 00000083 0300007f 0300000f e4810000  ................
 0900 24000000 10760001 2610b500 0000a303  $....v..&.......
 0910 0000a103 00000000 17ca0200 00c00200  ................
 0920 00050000 560c0000 04001103 00000401  ....V...........
 0930 1d030000 0c070400 00070000 00100400  ................
 0940 00000000 00400500 00020106 0a020000  .....@..........
 0950 02010808 02000002 02051e02 00000202  ................
 0960 079c0100 00020405 b9000000 02040778  ...............x
 0970 00000002 0805b400 00000208 07730000  .............s..
 0980 00030405 696e7400 045d0000 00020407  ....int..]......
 0990 7d000000 020804d9 01000002 01081102  }...............
 09a0 0000057d 03000001 080b6400 00000503  ...}......d.....
 09b0 008a0000 052f0400 00010a0b 64000000  ...../......d...
 09c0 0503fc89 000005dd 03000001 0b0b6400  ..............d.
 09d0 00000503 f8890000 05ea0300 00010c0b  ................
 09e0 64000000 0503f489 0000050e 04000001  d...............
 09f0 0e0b6400 00000503 f0890000 051a0400  ..d.............
 0a00 00010f0b 64000000 0503ec89 000006b6  ....d...........
 0a10 03000001 3106fc87 0000f001 0000019c  ....1...........
 0a20 64050000 076f6b00 01340964 05000008  d....ok..4.d....
 0a30 b1030000 01390d69 000000ba 030000b6  .....9.i........
 0a40 03000008 ab030000 013a0d69 000000da  .........:.i....
 0a50 030000d8 03000009 c5030000 013c085d  .............<.]
 0a60 0000008c 0108d103 0000013d 085d0000  ...........=.]..
 0a70 00f10300 00ed0300 000a6b05 00005c88  ..........k...\.
 0a80 00000200 02000001 43072e03 00000b78  ........C......x
 0a90 05000013 04000011 0400000c 90050000  ................
 0aa0 0b840500 002b0400 00290400 000d9d05  .....+...)......
 0ab0 00003802 0000012b 04f30100 000cc205  ..8....+........
 0ac0 00000cb6 0500000c aa050000 0ece0500  ................
 0ad0 00380200 000fcf05 00004604 00003e04  .8........F...>.
 0ae0 00000ed9 05000060 0200000f da050000  .......`........
 0af0 8c040000 84040000 10788800 001d0c00  .........x......
 0b00 00110150 02790011 01510275 7f110152  ...P.y...Q.u...R
 0b10 02760000 0000000d 9d050000 78020000  .v..........x...
 0b20 012c045d 0200000c c2050000 0cb60500  .,.]............
 0b30 000caa05 00000ece 05000078 0200000f  ...........x....
 0b40 cf050000 d7040000 d1040000 0ed90500  ................
 0b50 00a80200 000fda05 00001105 00000905  ................
 0b60 000010a8 8800001d 0c000011 01500279  .............P.y
 0b70 00110151 02757f11 01520276 00000000  ...Q.u...R.v....
 0b80 000d9d05 0000c002 0000012d 04c70200  ...........-....
 0b90 000cc205 00000cb6 0500000c aa050000  ................
 0ba0 0ece0500 00c00200 000fcf05 00006105  ..............a.
 0bb0 00005b05 00000ed9 050000d8 0200000f  ..[.............
 0bc0 da050000 9b050000 93050000 10d88800  ................
 0bd0 001d0c00 00110150 027b0011 01510275  .......P.{...Q.u
 0be0 7f110152 02760000 00000012 9d050000  ...R.v..........
 0bf0 f0020000 012e040c c2050000 0cb60500  ................
 0c00 000caa05 00000ece 050000f0 0200000f  ................
 0c10 cf050000 eb050000 e5050000 0ed90500  ................
 0c20 00080300 000fda05 00002506 00001d06  ..........%.....
 0c30 00001004 8900001d 0c000011 0150027b  .............P.{
 0c40 00110151 02757f11 01520276 00000000  ...Q.u...R.v....
 0c50 00000d6b 05000020 03000001 4807f204  ...k... ....H...
 0c60 00000c78 0500000c 90050000 0c840500  ...x............
 0c70 000d9d05 00004003 0000012b 04b70300  ......@....+....
 0c80 000cc205 00000cb6 0500000c aa050000  ................
 0c90 0ece0500 00400300 000fcf05 00007506  .....@........u.
 0ca0 00006f06 00000ed9 05000068 0300000f  ..o........h....
 0cb0 da050000 af060000 a7060000 10408900  .............@..
 0cc0 001d0c00 00110150 02790011 01510275  .......P.y...Q.u
 0cd0 7f110152 02770000 0000000d 9d050000  ...R.w..........
 0ce0 80030000 012c0421 0400000c c2050000  .....,.!........
 0cf0 0cb60500 000caa05 00000ece 05000080  ................
 0d00 0300000f cf050000 fa060000 f4060000  ................
 0d10 0ed90500 00980300 000fda05 00003407  ..............4.
 0d20 00002c07 00001070 8900001d 0c000011  ..,....p........
 0d30 01500279 00110151 02757f11 01520277  .P.y...Q.u...R.w
 0d40 00000000 000d9d05 0000b003 0000012d  ...............-
 0d50 048b0400 000cc205 00000cb6 0500000c  ................
 0d60 aa050000 0ece0500 00b00300 000fcf05  ................
 0d70 00008407 00007e07 00000ed9 050000c8  ......~.........
 0d80 0300000f da050000 be070000 b6070000  ................
 0d90 109c8900 001d0c00 00110150 02790011  ...........P.y..
 0da0 01510275 7f110152 02770000 00000012  .Q.u...R.w......
 0db0 9d050000 e0030000 012e040c c2050000  ................
 0dc0 0cb60500 000caa05 00000ece 050000e0  ................
 0dd0 0300000f cf050000 0e080000 08080000  ................
 0de0 0ed90500 00f80300 000fda05 00004808  ..............H.
 0df0 00004008 000010c8 8900001d 0c000011  ..@.............
 0e00 01500279 00110151 02757f11 01520277  .P.y...Q.u...R.w
 0e10 00000000 0000130c 88000029 0c000013  ...........)....
 0e20 14880000 350c0000 13188800 00030600  ....5...........
 0e30 00142888 0000410c 00002c05 00001101  ..(...A...,.....
 0e40 50013011 01510209 ff110152 0209ff00  P.0..Q.....R....
 0e50 143c8800 00410c00 00490500 00110150  .<...A...I.....P
 0e60 01301101 51013011 01520130 00135888  .0..Q.0..R.0..X.
 0e70 00004d0c 00001020 8900004d 0c000011  ..M.... ...M....
 0e80 01500391 4c060000 0201020f 03000015  .P..L...........
 0e90 94030000 01290601 9d050000 16140400  .....)..........
 0ea0 00012915 5d000000 16200400 00012920  ..).].... ....) 
 0eb0 5d000000 16090300 00012930 69000000  ].........)0i...
 0ec0 00159f03 00000122 06010306 00001614  ......."........
 0ed0 04000001 22165d00 00001620 04000001  ....".].... ....
 0ee0 22215d00 00001609 03000001 22316900  "!]........."1i.
 0ef0 00001707 69000124 0d5d0000 0017076a  ....i..$.].....j
 0f00 00012510 5d000000 10e88500 001d0c00  ..%.]...........
 0f10 00110150 02750011 01510274 7f110152  ...P.u...Q.t...R
 0f20 02760000 00000018 42040000 011806ec  .v......B.......
 0f30 840000cc 00000001 9c4e0800 00088803  .........N......
 0f40 0000011a 0d690000 00960800 00920800  .....i..........
 0f50 000a4e08 00000885 00000138 00000001  ..N........8....
 0f60 1c04dc06 00000b93 080000b6 080000b4  ................
 0f70 0800000b 87080000 cc080000 ca080000  ................
 0f80 0b7b0800 00e40800 00e00800 000b6f08  .{............o.
 0f90 00000409 00000209 00000b65 0800001c  ...........e....
 0fa0 0900001a 0900000b 5b080000 33090000  ........[...3...
 0fb0 31090000 0e9f0800 00400000 000fa008  1........@......
 0fc0 00004b09 00004909 00000eaa 08000060  ..K...I........`
 0fd0 0000000f ab080000 67090000 5f090000  ........g..._...
 0fe0 10208500 001d0c00 00110150 030a3c01  . .........P..<.
 0ff0 11015102 747f1101 52027500 00000000  ..Q.t...R.u.....
 1000 0d4e0800 00780000 00011d04 4e070000  .N...x......N...
 1010 0c930800 000c8708 00000c7b 0800000c  ...........{....
 1020 6f080000 0c650800 000c5b08 00000e9f  o....e....[.....
 1030 08000078 00000019 a0080000 0eaa0800  ...x............
 1040 00980000 000fab08 0000ad09 0000a509  ................
 1050 0000104c 8500001d 0c000011 0150030a  ...L.........P..
 1060 e4011101 5102747f 11015202 75000000  ....Q.t...R.u...
 1070 00000d4e 080000b0 00000001 1e04bf07  ...N............
 1080 00000c93 0800000c 87080000 0c7b0800  .............{..
 1090 000c6f08 00000c65 0800000c 5b080000  ..o....e....[...
 10a0 0e9f0800 00b00000 0019a008 00000eaa  ................
 10b0 080000c8 0000000f ab080000 f3090000  ................
 10c0 eb090000 10788500 001d0c00 00110150  .....x.........P
 10d0 02747f11 01510208 88110152 02750000  .t...Q.....R.u..
 10e0 0000000d 4e080000 e0000000 011f0431  ....N..........1
 10f0 0800000c 93080000 0c870800 000c7b08  ..............{.
 1100 00000c6f 0800000c 65080000 0c5b0800  ...o....e....[..
 1110 000e9f08 0000e000 000019a0 0800000e  ................
 1120 aa080000 f8000000 0fab0800 00390a00  .............9..
 1130 00310a00 0010a485 00001d0c 00001101  .1..............
 1140 5002747f 11015103 0ad00111 01520275  P.t...Q......R.u
 1150 00000000 00100485 0000410c 00001101  ..........A.....
 1160 500209ff 11015102 09ff1101 520209ff  P.....Q.....R...
 1170 000015bb 03000001 110601f4 0800001a  ................
 1180 78000111 145d0000 001a7900 01111b5d  x....]....y....]
 1190 00000016 3b040000 0111225d 00000016  ....;....."]....
 11a0 09030000 01113369 00000016 f0030000  ......3i........
 11b0 01113e5d 00000016 26040000 01114e64  ..>]....&.....Nd
 11c0 05000017 07690001 130d5d00 00001707  .....i....].....
 11d0 6a000114 105d0000 00149884 00001d0c  j....]..........
 11e0 0000d508 00001101 50027b7f 11015102  ........P.{...Q.
 11f0 75001101 52027a00 0010d084 00001d0c  u...R.z.........
 1200 00001101 50027400 11015102 7b7f1101  ....P.t...Q.{...
 1210 52027a00 00000000 1b4e0800 00348400  R.z......N...4..
 1220 00b80000 00019c7a 0900000b 5b080000  .......z....[...
 1230 7f0a0000 770a0000 0b650800 00be0a00  ....w....e......
 1240 00b60a00 000b6f08 0000fd0a 0000f50a  ......o.........
 1250 00000b7b 0800003c 0b000034 0b00001c  ...{...<...4....
 1260 87080000 0291001c 93080000 0291040e  ................
 1270 9f080000 00000000 0fa00800 00790b00  .............y..
 1280 00730b00 000eaa08 00002000 00000fab  .s........ .....
 1290 080000a7 0b0000a3 0b000000 00001b9d  ................
 12a0 050000b8 85000048 00000001 9ce70900  .......H........
 12b0 000baa05 0000cb0b 0000c70b 00000bb6  ................
 12c0 050000ef 0b0000eb 0b00000b c2050000  ................
 12d0 110c0000 0d0c0000 0ece0500 00100100  ................
 12e0 000fcf05 0000370c 00002f0c 00001dd9  ......7.../.....
 12f0 050000d0 85000020 0000000f da050000  ....... ........
 1300 830c0000 810c0000 0000001b 6b050000  ............k...
 1310 00860000 e0000000 019c1d0c 00000b78  ...............x
 1320 0500009d 0c000097 0c00000b 84050000  ................
 1330 ce0c0000 c80c0000 0b900500 00fd0c00  ................
 1340 00f90c00 000a9d05 00001486 00000028  ...............(
 1350 01000001 2b04a80a 00000bc2 0500001f  ....+...........
 1360 0d00001b 0d00000b b6050000 410d0000  ............A...
 1370 3d0d0000 0baa0500 00630d00 005f0d00  =........c..._..
 1380 000ece05 00002801 00000fcf 05000089  ......(.........
 1390 0d000081 0d00000e d9050000 48010000  ............H...
 13a0 0fda0500 00d70d00 00cf0d00 00103486  ..............4.
 13b0 00001d0c 00001101 50027a00 11015102  ........P.z...Q.
 13c0 787f1101 52027900 00000000 0a9d0500  x...R.y.........
 13d0 00488600 00026001 0000012c 042f0b00  .H....`....,./..
 13e0 000bc205 00001e0e 00001c0e 00000bb6  ................
 13f0 05000035 0e000031 0e00000b aa050000  ...5...1........
 1400 590e0000 570e0000 0ece0500 00600100  Y...W........`..
 1410 000fcf05 0000760e 00006e0e 00000ed9  ......v...n.....
 1420 05000088 0100000f da050000 c80e0000  ................
 1430 c00e0000 10688600 001d0c00 00110150  .....h.........P
 1440 027a0011 01510278 7f110152 02790000  .z...Q.x...R.y..
 1450 0000000d 9d050000 a0010000 012d0499  .............-..
 1460 0b00000c c2050000 0cb60500 000caa05  ................
 1470 00000ece 050000a0 0100000f cf050000  ................
 1480 180f0000 120f0000 0ed90500 00b80100  ................
 1490 000fda05 00005a0f 0000520f 00001098  ......Z...R.....
 14a0 8600001d 0c000011 0150027a 00110151  .........P.z...Q
 14b0 02787f11 01520279 00000000 001e9d05  .x...R.y........
 14c0 0000ac86 000002d0 01000001 2e040bc2  ................
 14d0 050000a6 0f0000a4 0f00000b b6050000  ................
 14e0 bb0f0000 b90f0000 0baa0500 00d40f00  ................
 14f0 00d00f00 000ece05 0000d001 00000fcf  ................
 1500 050000fe 0f0000f6 0f00000e d9050000  ................
 1510 e8010000 0fda0500 00501000 00481000  .........P...H..
 1520 0010c886 00001d0c 00001101 50027400  ............P.t.
 1530 11015102 787f1101 52027900 00000000  ..Q.x...R.y.....
 1540 001fa002 0000a002 00000210 061ffa03  ................
 1550 0000fa03 0000030a 061f1503 00001503  ................
 1560 0000020f 061f0403 00000403 00000211  ................
 1570 0a1f8e03 00008e03 00000106 0d003901  ..............9.
 1580 00000400 d8040000 0401a304 00000c0d  ................
 1590 0500004d 040000e0 8600001c 01000000  ...M............
 15a0 0a000002 0405696e 740003f1 01000002  ......int.......
 15b0 d1173800 00000404 077d0000 00040805  ..8......}......
 15c0 b4000000 040804d9 01000004 01060a02  ................
 15d0 00000401 08080200 00040205 1e020000  ................
 15e0 0402079c 01000004 0405b900 00000404  ................
 15f0 07780000 00040807 73000000 05040604  .x......s.......
 1600 86000000 04010811 02000007 ca020000  ................
 1610 0321097e 000000e0 8600001c 01000001  .!.~............
 1620 9c360100 00086d00 01260f7e 00000001  .6....m..&.~....
 1630 50096300 01270625 000000a4 1000009a  P.c..'.%........
 1640 10000009 6e000128 092c0000 00fb1000  ....n..(.,......
 1650 00e91000 000a7300 012a0980 00000082  ......s..*......
 1660 1100006c 1100000a 6900012d 10380000  ...l....i..-.8..
 1670 000f1200 00091200 000b3300 0000012e  ..........3.....
 1680 11700000 00461200 003e1200 000b9604  .p...F...>......
 1690 0000012f 12360100 00b31200 009b1200  .../.6..........
 16a0 000a6400 01301038 00000053 13000049  ..d..0.8...S...I
 16b0 13000000 06047000 000000             ......p....     
Contents of section .debug_abbrev:
 0000 01110010 06110112 01030e1b 0e250e13  .............%..
 0010 05000000 01110010 06110112 01030e1b  ................
 0020 0e250e13 05000000 01110125 0e130b03  .%.........%....
 0030 0e1b0e11 01120610 17000002 24000b0b  ............$...
 0040 3e0b030e 00000316 00030e3a 0b3b0b39  >..........:.;.9
 0050 0b491300 00042400 0b0b3e0b 03080000  .I....$...>.....
 0060 050f000b 0b000006 0f000b0b 49130000  ............I...
 0070 07130103 0e0b0b3a 0b3b0b39 0b011300  .......:.;.9....
 0080 00080d00 030e3a0b 3b0b390b 4913380b  ......:.;.9.I.8.
 0090 00000901 01491301 1300000a 21004913  .....I......!.I.
 00a0 2f0b0000 0b340003 0e3a0b3b 0b390b49  /....4...:.;.9.I
 00b0 133f193c 1900000c 2e003f19 030e3a0b  .?.<......?...:.
 00c0 3b0b390b 27194913 11011206 40189742  ;.9.'.I.....@..B
 00d0 1900000d 2e013f19 030e3a0b 3b0b390b  ......?...:.;.9.
 00e0 27191101 12064018 97421901 1300000e  '.....@..B......
 00f0 05000308 3a0b3b0b 390b4913 02180000  ....:.;.9.I.....
 0100 0f2e013f 19030e3a 0b3b0b39 0b271987  ...?...:.;.9.'..
 0110 01191101 12064018 97421901 13000010  ......@..B......
 0120 0500030e 3a0b3b0b 390b4913 0217b742  ....:.;.9.I....B
 0130 17000011 2e013f19 030e3a0b 3b0b390b  ......?...:.;.9.
 0140 27194913 11011206 40189742 19011300  '.I.....@..B....
 0150 00123400 03083a0b 3b0b390b 49130218  ..4...:.;.9.I...
 0160 00001334 00030e3a 0b3b0b39 0b491302  ...4...:.;.9.I..
 0170 17b74217 00001405 0003083a 0b3b0b39  ..B........:.;.9
 0180 0b491302 17b74217 00001505 00030e3a  .I....B........:
 0190 0b3b0b39 0b491302 18000000 01110125  .;.9.I.........%
 01a0 0e130b03 0e1b0e11 01120610 17000002  ................
 01b0 24000b0b 3e0b030e 00000324 000b0b3e  $...>......$...>
 01c0 0b030800 00041600 030e3a0b 3b0b390b  ..........:.;.9.
 01d0 49130000 0513010b 0b3a0b3b 0b390b01  I........:.;.9..
 01e0 13000006 0d00030e 3a0b3b0b 390b4913  ........:.;.9.I.
 01f0 380b0000 07340003 083a0b3b 0b390b49  8....4...:.;.9.I
 0200 133f1902 18000008 0f000b0b 49130000  .?..........I...
 0210 09340003 0e3a0b3b 0b390b49 133f1902  .4...:.;.9.I.?..
 0220 1800000a 01014913 01130000 0b210049  ......I......!.I
 0230 132f0b00 000c3400 03083a0b 3b0b390b  ./....4...:.;.9.
 0240 49133f19 88010b02 1800000d 2e013f19  I.?...........?.
 0250 030e3a0b 3b0b390b 27194913 11011206  ..:.;.9.'.I.....
 0260 40189742 19011300 000e0500 03083a0b  @..B..........:.
 0270 3b0b390b 49130217 b7421700 000f0b01  ;.9.I....B......
 0280 11011206 00001034 0003083a 0b3b0b39  .......4...:.;.9
 0290 0b491302 17b74217 00001189 82010111  .I....B.........
 02a0 01311301 13000012 8a820100 02189142  .1.............B
 02b0 18000013 89820101 11013113 0000142e  ..........1.....
 02c0 013f1903 0e3a0b3b 0b390b27 19110112  .?...:.;.9.'....
 02d0 06401897 42190113 00001505 00030e3a  .@..B..........:
 02e0 0b3b0b39 0b491302 17b74217 00001605  .;.9.I....B.....
 02f0 0003083a 0b3b0b39 0b491302 18000017  ...:.;.9.I......
 0300 2e003f19 3c196e0e 030e3a0b 3b0b0000  ..?.<.n...:.;...
 0310 00011101 250e130b 030e1b0e 55171101  ....%.......U...
 0320 10170000 0224000b 0b3e0b03 0e000003  .....$...>......
 0330 24000b0b 3e0b0308 00000426 00491300  $...>......&.I..
 0340 00053400 030e3a0b 3b0b390b 49133f19  ..4...:.;.9.I.?.
 0350 02180000 062e013f 19030e3a 0b3b0b39  .......?...:.;.9
 0360 0b271911 01120640 18974219 01130000  .'.....@..B.....
 0370 07340003 083a0b3b 0b390b49 13000008  .4...:.;.9.I....
 0380 3400030e 3a0b3b0b 390b4913 0217b742  4...:.;.9.I....B
 0390 17000009 3400030e 3a0b3b0b 390b4913  ....4...:.;.9.I.
 03a0 1c050000 0a1d0131 135201b8 420b5517  .......1.R..B.U.
 03b0 580b590b 570b0113 00000b05 00311302  X.Y.W........1..
 03c0 17b74217 00000c05 00311300 000d1d01  ..B......1......
 03d0 31135517 580b590b 570b0113 00000e0b  1.U.X.Y.W.......
 03e0 01311355 1700000f 34003113 0217b742  .1.U....4.1....B
 03f0 17000010 89820101 11013113 0000118a  ..........1.....
 0400 82010002 18914218 0000121d 01311355  ......B......1.U
 0410 17580b59 0b570b00 00138982 01001101  .X.Y.W..........
 0420 31130000 14898201 01110131 13011300  1..........1....
 0430 00152e01 3f19030e 3a0b3b0b 390b2719  ....?...:.;.9.'.
 0440 200b0113 00001605 00030e3a 0b3b0b39   ..........:.;.9
 0450 0b491300 00170b01 0000182e 013f1903  .I...........?..
 0460 0e3a0b3b 0b390b11 01120640 18974219  .:.;.9.....@..B.
 0470 01130000 19340031 1300001a 05000308  .....4.1........
 0480 3a0b3b0b 390b4913 00001b2e 01311311  :.;.9.I......1..
 0490 01120640 18974219 01130000 1c050031  ...@..B........1
 04a0 13021800 001d0b01 31131101 12060000  ........1.......
 04b0 1e1d0131 135201b8 420b5517 580b590b  ...1.R..B.U.X.Y.
 04c0 570b0000 1f2e003f 193c196e 0e030e3a  W......?.<.n...:
 04d0 0b3b0b39 0b000000 01110125 0e130b03  .;.9.......%....
 04e0 0e1b0e11 01120610 17000002 24000b0b  ............$...
 04f0 3e0b0308 00000316 00030e3a 0b3b0b39  >..........:.;.9
 0500 0b491300 00042400 0b0b3e0b 030e0000  .I....$...>.....
 0510 050f000b 0b000006 0f000b0b 49130000  ............I...
 0520 072e013f 19030e3a 0b3b0b39 0b271949  ...?...:.;.9.'.I
 0530 13110112 06401897 42190113 00000805  .....@..B.......
 0540 0003083a 0b3b0b39 0b491302 18000009  ...:.;.9.I......
 0550 05000308 3a0b3b0b 390b4913 0217b742  ....:.;.9.I....B
 0560 1700000a 34000308 3a0b3b0b 390b4913  ....4...:.;.9.I.
 0570 0217b742 1700000b 3400030e 3a0b3b0b  ...B....4...:.;.
 0580 390b4913 0217b742 17000000           9.I....B....    
Contents of section .debug_aranges:
 0000 1c000000 02000000 00000400 00000000  ................
 0010 00800000 44000000 00000000 00000000  ....D...........
 0020 1c000000 02002600 00000400 00000000  ......&.........
 0030 44800000 38010000 00000000 00000000  D...8...........
 0040 1c000000 02004c00 00000400 00000000  ......L.........
 0050 7c810000 64000000 00000000 00000000  |...d...........
 0060 1c000000 02004f05 00000400 00000000  ......O.........
 0070 e0810000 54020000 00000000 00000000  ....T...........
 0080 24000000 02002409 00000400 00000000  $.....$.........
 0090 34840000 ac020000 fc870000 f0010000  4...............
 00a0 00000000 00000000 1c000000 02007e15  ..............~.
 00b0 00000400 00000000 e0860000 1c010000  ................
 00c0 00000000 00000000                    ........        
Contents of section .debug_str:
 0000 626f6f74 2e73002f 686f6d65 2f746961  boot.s./home/tia
 0010 676f2f44 6f63756d 656e7473 2f706f6c  go/Documents/pol
 0020 692f6c61 6270726f 632f7072 6f6a6563  i/labproc/projec
 0030 742f6662 75666665 7200474e 55204153  t/fbuffer.GNU AS
 0040 20322e33 38006370 752e7300 5f5f6f66   2.38.cpu.s.__of
 0050 665f7400 5f5f6769 645f7400 73745f63  f_t.__gid_t.st_c
 0060 74696d00 5f5f7569 6e74385f 74007072  tim.__uint8_t.pr
 0070 6576006c 6f6e6720 6c6f6e67 20756e73  ev.long long uns
 0080 69676e65 6420696e 74007374 5f626c6f  igned int.st_blo
 0090 636b7300 68656170 5f616464 72005f5f  cks.heap_addr.__
 00a0 696e745f 6c656173 7436345f 74005f65  int_least64_t._e
 00b0 78697400 6c6f6e67 206c6f6e 6720696e  xit.long long in
 00c0 74007374 5f696e6f 005f5f6d 6f64655f  t.st_ino.__mode_
 00d0 74005f5f 626c6b63 6e745f74 005f6c73  t.__blkcnt_t._ls
 00e0 65656b00 5f667374 6174005f 67657470  eek._fstat._getp
 00f0 69640073 745f6174 696d0047 4e552043  id.st_atim.GNU C
 0100 31372031 302e332e 31203230 32313036  17 10.3.1 202106
 0110 32312028 72656c65 61736529 202d6d74  21 (release) -mt
 0120 756e653d 636f7274 65782d61 37202d6d  une=cortex-a7 -m
 0130 666c6f61 742d6162 693d736f 6674202d  float-abi=soft -
 0140 6d61726d 202d6d61 7263683d 61726d76  marm -march=armv
 0150 372d6120 2d67202d 4f310063 6f756e74  7-a -g -O1.count
 0160 005f5f75 696e7433 325f7400 5f5f6465  .__uint32_t.__de
 0170 765f7400 73745f75 69640073 745f7370  v_t.st_uid.st_sp
 0180 61726534 005f636c 6f736500 74696d65  are4._close.time
 0190 73706563 00776865 6e636500 73686f72  spec.whence.shor
 01a0 7420756e 7369676e 65642069 6e74005f  t unsigned int._
 01b0 5f6e6c69 6e6b5f74 005f6973 61747479  _nlink_t._isatty
 01c0 0073745f 73697a65 0073745f 6d6f6465  .st_size.st_mode
 01d0 0074765f 6e736563 006c6f6e 6720646f  .tv_nsec.long do
 01e0 75626c65 0074765f 73656300 5f5f626c  uble.tv_sec.__bl
 01f0 6b73697a 655f7400 74696d65 5f740073  ksize_t.time_t.s
 0200 745f6e6c 696e6b00 756e7369 676e6564  t_nlink.unsigned
 0210 20636861 72007374 7562732e 63007368   char.stubs.c.sh
 0220 6f727420 696e7400 66696c65 0073745f  ort int.file.st_
 0230 626c6b73 697a6500 5f5f696e 6f5f7400  blksize.__ino_t.
 0240 73745f72 64657600 5f5f7569 645f7400  st_rdev.__uid_t.
 0250 6f666673 6574005f 6b696c6c 0073745f  offset._kill.st_
 0260 67696400 73746174 75730073 745f6465  gid.status.st_de
 0270 76007374 5f6d7469 6d00696e 6372005f  v.st_mtim.incr._
 0280 7362726b 00677075 6d61696c 5f726567  sbrk.gpumail_reg
 0290 5f740066 622e6300 6770755f 6d736700  _t.fb.c.gpu_msg.
 02a0 66625f70 6978656c 00666273 697a6500  fb_pixel.fbsize.
 02b0 6770755f 72656164 0073656e 64657200  gpu_read.sender.
 02c0 5f5f6275 696c7469 6e5f6d65 6d736574  __builtin_memset
 02d0 00636f6e 66696700 5f5f7569 6e743136  .config.__uint16
 02e0 5f740067 70755f77 72697465 00706f6c  _t.gpu_write.pol
 02f0 6c006465 70746800 70697463 68006361  l.depth.pitch.ca
 0300 6e616c00 7061636b 5f636f6c 6f72005f  nal.pack_color._
 0310 426f6f6c 00696e69 745f6662 00474e55  Bool.init_fb.GNU
 0320 20433137 2031302e 332e3120 32303231   C17 10.3.1 2021
 0330 30363231 20287265 6c656173 6529202d  0621 (release) -
 0340 6d74756e 653d636f 72746578 2d613720  mtune=cortex-a7 
 0350 2d6d666c 6f61742d 6162693d 736f6674  -mfloat-abi=soft
 0360 202d6d61 726d202d 6d617263 683d6172   -marm -march=ar
 0370 6d76372d 61202d67 202d4f34 00424c4f  mv7-a -g -O4.BLO
 0380 434b5f53 495a4500 77686974 65006465  CK_SIZE.white.de
 0390 6c617900 64726177 5f626c6f 636b0064  lay.draw_block.d
 03a0 7261775f 73717561 72650062 6c61636b  raw_square.black
 03b0 00637961 6e006d61 696e0064 7261775f  .cyan.main.draw_
 03c0 6c696e65 00626c6f 636b5f70 6f735f78  line.block_pos_x
 03d0 00626c6f 636b5f70 6f735f79 00667261  .block_pos_y.fra
 03e0 6d655f68 65696768 74006672 616d655f  me_height.frame_
 03f0 74686963 6b6e6573 7300656e 61626c65  thickness.enable
 0400 5f636163 6865006d 61696e2e 63006672  _cache.main.c.fr
 0410 616d655f 706f735f 78006672 616d655f  ame_pos_x.frame_
 0420 706f735f 79007665 72746963 616c0066  pos_y.vertical.f
 0430 72616d65 5f776964 7468006c 656e6774  rame_width.lengt
 0440 68006472 61775f66 72616d65 002f6275  h.draw_frame./bu
 0450 696c642f 6e65776c 69622d70 42333064  ild/newlib-pB30d
 0460 652f6e65 776c6962 2d332e33 2e302f62  e/newlib-3.3.0/b
 0470 75696c64 2f61726d 2d6e6f6e 652d6561  uild/arm-none-ea
 0480 62692f6e 65776c69 622f6c69 62632f73  bi/newlib/libc/s
 0490 7472696e 6700616c 69676e65 645f6164  tring.aligned_ad
 04a0 64720047 4e552043 31372031 302e332e  dr.GNU C17 10.3.
 04b0 31203230 32313036 32312028 72656c65  1 20210621 (rele
 04c0 61736529 202d6d63 70753d61 726d3774  ase) -mcpu=arm7t
 04d0 646d6920 2d6d666c 6f61742d 6162693d  dmi -mfloat-abi=
 04e0 736f6674 202d6d61 726d202d 6d617263  soft -marm -marc
 04f0 683d6172 6d763474 202d6720 2d4f3220  h=armv4t -g -O2 
 0500 2d666e6f 2d627569 6c74696e 002e2e2f  -fno-builtin.../
 0510 2e2e2f2e 2e2f2e2e 2f2e2e2f 6e65776c  ../../../../newl
 0520 69622f6c 6962632f 73747269 6e672f6d  ib/libc/string/m
 0530 656d7365 742e6300                    emset.c.        
Contents of section .debug_loc:
 0000 01005400 00005800 00000100 50000000  ..T...X.....P...
 0010 00000000 00000000 004c0000 00500000  .........L...P..
 0020 00010050 50000000 54000000 0400f301  ...PP...T.......
 0030 509f0000 00000000 00000000 00000000  P...............
 0040 30000000 40000000 01005040 00000044  0...@.....P@...D
 0050 00000001 00524400 00004c00 00000400  .....RD...L.....
 0060 f301509f 00000000 00000000 00004000  ..P...........@.
 0070 00004c00 00000100 50000000 00000000  ..L.....P.......
 0080 00000000 00280000 002c0000 00010050  .....(...,.....P
 0090 2c000000 30000000 0400f301 509f0000  ,...0.......P...
 00a0 00000000 00000000 00002000 00002400  .......... ...$.
 00b0 00000100 50240000 00280000 000400f3  ....P$...(......
 00c0 01509f00 00000000 00000000 00000018  .P..............
 00d0 0000001c 00000001 00501c00 00002000  .........P.... .
 00e0 00000400 f301509f 00000000 00000000  ......P.........
 00f0 00000000 10000000 14000000 01005014  ..............P.
 0100 00000018 00000004 00f30150 9f000000  ...........P....
 0110 00000000 00000000 00000000 000c0000  ................
 0120 00010050 0c000000 10000000 0400f301  ...P............
 0130 509f0000 00000000 00000001 01000000  P...............
 0140 24020000 34020000 01005034 02000038  $...4.....P4...8
 0150 02000005 00700033 259f3802 00005402  .....p.3%.8...T.
 0160 00000600 f3015033 259f0000 00000000  ......P3%.......
 0170 00000002 02000000 24020000 34020000  ........$...4...
 0180 01005134 0200003c 02000005 00710032  ..Q4...<.....q.2
 0190 259f3c02 00005402 00000600 f3015132  %.<...T.......Q2
 01a0 259f0000 00000000 00000003 03000000  %...............
 01b0 24020000 34020000 01005234 02000044  $...4.....R4...D
 01c0 02000005 00720033 259f4402 00005402  .....r.3%.D...T.
 01d0 00000600 f3015233 259f0000 00000000  ......R3%.......
 01e0 00000405 05000000 00003402 00003402  ..........4...4.
 01f0 00000800 70003325 08ff1a9f 34020000  ....p.3%....4...
 0200 38020000 12007000 332508ff 1a352471  8.....p.3%...5$q
 0210 00322508 ff1a219f 38020000 3c020000  .2%...!.8...<...
 0220 1300f301 50332508 ff1a3524 71003225  ....P3%...5$q.2%
 0230 08ff1a21 9f3c0200 00540200 001400f3  ...!.<...T......
 0240 01503325 08ff1a35 24f30151 322508ff  .P3%...5$..Q2%..
 0250 1a219f00 00000000 00000000 000000b4  .!..............
 0260 000000dc 00000001 0050dc00 0000f800  .........P......
 0270 00000400 f301509f 00000000 00000000  ......P.........
 0280 00000000 b4000000 e0000000 010051e0  ..............Q.
 0290 000000f8 00000004 00f30151 9f000000  ...........Q....
 02a0 00000000 00000000 00b40000 00f00000  ................
 02b0 00010052 f0000000 f8000000 0400f301  ...R............
 02c0 529f0000 00000000 00000000 00000000  R...............
 02d0 d8000000 e0000000 06007e00 71001e9f  ..........~.q...
 02e0 e0000000 ec000000 010051ec 000000f8  ..........Q.....
 02f0 0000000a 007e00f3 01511e70 00229f00  .....~...Q.p."..
 0300 00000000 00000000 0000005c 00000060  ...........\...`
 0310 00000001 00506000 0000b400 00000100  .....P`.........
 0320 5c000000 00000000 00020000 005c0000  \............\..
 0330 00900000 00010051 a0000000 b0000000  .......Q........
 0340 01005000 00000000 00000000 00000000  ..P.............
 0350 00300000 00340000 00010050 34000000  .0...4.....P4...
 0360 4c000000 0100504c 0000005c 00000006  L.....PL...\....
 0370 00f30150 3f1a9f00 00000000 00000000  ...P?...........
 0380 00000000 00000004 00000001 00500400  .............P..
 0390 00003000 00000100 51000000 00000000  ..0.....Q.......
 03a0 0000001c 0000002c 00000001 00500000  .......,.....P..
 03b0 00000000 00000000 00003088 00003888  ..........0...8.
 03c0 00000100 50388800 00ec8900 00010056  ....P8.........V
 03d0 00000000 00000000 00005488 0000ec89  ..........T.....
 03e0 00000100 57000000 00000000 00020000  ....W...........
 03f0 00548800 00588800 00030008 8c9f5c88  .T...X........\.
 0400 0000ec89 00000100 5a000000 00000000  ........Z.......
 0410 0003005c 88000018 89000004 000a8c01  ...\............
 0420 9f000000 00000000 0002005c 88000018  ...........\....
 0430 89000001 005a0000 00000000 00000300  .....Z..........
 0440 00010100 00005c88 00006088 00000200  ......\...`.....
 0450 309f6088 00008088 00000400 79f47c9f  0.`.........y.|.
 0460 80880000 84880000 040079f5 7c9f8488  ..........y.|...
 0470 00009088 00000400 79f47c9f 00000000  ........y.|.....
 0480 00000000 00000000 00000001 60880000  ............`...
 0490 64880000 0200309f 64880000 74880000  d.....0.d...t...
 04a0 06007500 7a001c9f 74880000 77880000  ..u.z...t...w...
 04b0 06007100 7a001c9f 77880000 78880000  ..q.z...w...x...
 04c0 07007a00 20750022 9f000000 00000000  ..z. u."........
 04d0 00000101 00000090 880000b0 88000004  ................
 04e0 0079847d 9fb08800 00b48800 00040079  .y.}...........y
 04f0 857d9fb4 880000c0 88000004 0079847d  .}...........y.}
 0500 9f000000 00000000 00000000 00000000  ................
 0510 01908800 00948800 00020030 9f948800  ...........0....
 0520 00a48800 00080075 007a001c 401c9fa4  .......u.z..@...
 0530 880000a7 88000008 0071007a 001c401c  .........q.z..@.
 0540 9fa78800 00a88800 00080075 007a001c  ...........u.z..
 0550 411c9f00 00000000 00000000 01010000  A...............
 0560 00c08800 00e08800 0004007b f47c9fe0  ...........{.|..
 0570 880000e4 88000004 007bf57c 9fe48800  .........{.|....
 0580 00ec8800 0004007b f47c9f00 00000000  .......{.|......
 0590 00000000 00000000 000001c0 880000c4  ................
 05a0 88000002 00309fc4 880000d4 88000008  .....0..........
 05b0 0075007a 001c401c 9fd48800 00d78800  .u.z..@.........
 05c0 00080071 007a001c 401c9fd7 880000d8  ...q.z..@.......
 05d0 88000008 0075007a 001c411c 9f000000  .....u.z..A.....
 05e0 00000000 00000101 000000ec 8800000c  ................
 05f0 89000004 007be47c 9f0c8900 00108900  .....{.|........
 0600 0004007b e57c9f10 89000018 89000004  ...{.|..........
 0610 007be47c 9f000000 00000000 00000000  .{.|............
 0620 00000000 01ec8800 00f08800 00020030  ...............0
 0630 9ff08800 00008900 00080075 007a001c  ...........u.z..
 0640 401c9f00 89000003 89000008 0071007a  @............q.z
 0650 001c401c 9f038900 00048900 00080075  ..@............u
 0660 007a001c 411c9f00 00000000 00000000  .z..A...........
 0670 01010000 00288900 00488900 00040079  .....(...H.....y
 0680 f47c9f48 8900004c 89000004 0079f57c  .|.H...L.....y.|
 0690 9f4c8900 00588900 00040079 f47c9f00  .L...X.....y.|..
 06a0 00000000 00000000 00000000 00000128  ...............(
 06b0 8900002c 89000002 00309f2c 8900003c  ...,.....0.,...<
 06c0 89000006 0075007a 001c9f3c 8900003f  .....u.z...<...?
 06d0 89000006 0071007a 001c9f3f 89000040  .....q.z...?...@
 06e0 89000007 007a0020 7500229f 00000000  .....z. u.".....
 06f0 00000000 00010100 00005889 00007889  ..........X...x.
 0700 00000400 79847d9f 78890000 7c890000  ....y.}.x...|...
 0710 04007985 7d9f7c89 00008489 00000400  ..y.}.|.........
 0720 79847d9f 00000000 00000000 00000000  y.}.............
 0730 00000001 58890000 5c890000 0200309f  ....X...\.....0.
 0740 5c890000 6c890000 08007500 7a001c40  \...l.....u.z..@
 0750 1c9f6c89 00006f89 00000800 71007a00  ..l...o.....q.z.
 0760 1c401c9f 6f890000 70890000 08007500  .@..o...p.....u.
 0770 7a001c41 1c9f0000 00000000 00000001  z..A............
 0780 01000000 84890000 a4890000 040079f4  ..............y.
 0790 7c9fa489 0000a889 00000400 79f57c9f  |...........y.|.
 07a0 a8890000 b0890000 040079f4 7c9f0000  ..........y.|...
 07b0 00000000 00000000 00000000 00018489  ................
 07c0 00008889 00000200 309f8889 00009889  ........0.......
 07d0 00000800 75007a00 1c401c9f 98890000  ....u.z..@......
 07e0 9b890000 08007100 7a001c40 1c9f9b89  ......q.z..@....
 07f0 00009c89 00000800 75007a00 1c411c9f  ........u.z..A..
 0800 00000000 00000000 00010100 0000b089  ................
 0810 0000d089 00000400 79e47c9f d0890000  ........y.|.....
 0820 d4890000 040079e5 7c9fd489 0000e889  ......y.|.......
 0830 00000400 79e47c9f 00000000 00000000  ....y.|.........
 0840 00000000 00000001 b0890000 b4890000  ................
 0850 0200309f b4890000 c4890000 08007500  ..0...........u.
 0860 7a001c40 1c9fc489 0000c789 00000800  z..@............
 0870 71007a00 1c401c9f c7890000 c8890000  q.z..@..........
 0880 08007500 7a001c41 1c9f0000 00000000  ..u.z..A........
 0890 00000005 05000885 00000885 00000100  ................
 08a0 50088500 00b88500 00010055 00000000  P..........U....
 08b0 00000000 01000885 00003485 00000200  ..........4.....
 08c0 319f0000 00000000 00000100 08850000  1...............
 08d0 34850000 0200349f 00000000 00000000  4.....4.........
 08e0 01050500 08850000 08850000 01005008  ..............P.
 08f0 85000034 85000001 00550000 00000000  ...4.....U......
 0900 00000100 08850000 34850000 04000a48  ........4......H
 0910 019f0000 00000000 00000100 08850000  ................
 0920 34850000 03000888 9f000000 00000000  4...............
 0930 00010008 85000034 85000004 000a3c01  .......4......<.
 0940 9f000000 00000000 00040508 85000008  ................
 0950 85000002 00309f00 00000000 00000005  .....0..........
 0960 00000000 00000108 8500000c 85000002  ................
 0970 00309f0c 8500001c 85000004 0074f87e  .0...........t.~
 0980 9f1c8500 001f8500 00040071 f87e9f1f  ...........q.~..
 0990 85000020 85000004 0074f77e 9f000000  ... .....t.~....
 09a0 00000000 00000000 00000000 01348500  .............4..
 09b0 00388500 00020030 9f388500 00488500  .8.....0.8...H..
 09c0 00040074 f87e9f48 8500004b 85000004  ...t.~.H...K....
 09d0 0071f87e 9f4b8500 004c8500 00040074  .q.~.K...L.....t
 09e0 f77e9f00 00000000 00000000 00000000  .~..............
 09f0 00000160 85000064 85000002 00309f64  ...`...d.....0.d
 0a00 85000074 85000004 0074c47d 9f748500  ...t.....t.}.t..
 0a10 00778500 00040070 c47d9f77 85000078  .w.....p.}.w...x
 0a20 85000004 0074c37d 9f000000 00000000  .....t.}........
 0a30 00000000 00000000 018c8500 00908500  ................
 0a40 00020030 9f908500 00a08500 00040074  ...0...........t
 0a50 c47d9fa0 850000a3 85000004 0070c47d  .}...........p.}
 0a60 9fa38500 00a48500 00040074 c37d9f00  ...........t.}..
 0a70 00000000 00000000 00000000 00000034  ...............4
 0a80 8400006c 84000001 00506c84 0000b084  ...l.....Pl.....
 0a90 00000100 54b08400 00b88400 000400f3  ....T...........
 0aa0 01509fb8 840000ec 84000001 00540000  .P...........T..
 0ab0 00000000 00000000 00000000 00003484  ..............4.
 0ac0 00006c84 00000100 516c8400 00b08400  ..l.....Ql......
 0ad0 00010055 b0840000 b8840000 0400f301  ...U............
 0ae0 519fb884 0000ec84 00000100 55000000  Q...........U...
 0af0 00000000 00000000 00000000 00348400  .............4..
 0b00 006c8400 00010052 6c840000 b0840000  .l.....Rl.......
 0b10 010059b0 840000b8 84000004 00f30152  ..Y............R
 0b20 9fb88400 00ec8400 00010059 00000000  ...........Y....
 0b30 00000000 00000000 00000000 34840000  ............4...
 0b40 6c840000 0100536c 840000b0 84000001  l.....Sl........
 0b50 005ab084 0000b884 00000400 f301539f  .Z............S.
 0b60 b8840000 ec840000 01005a00 00000000  ..........Z.....
 0b70 00000003 00000000 00348400 006c8400  .........4...l..
 0b80 00020030 9f6c8400 00b08400 00010058  ...0.l.........X
 0b90 b8840000 ec840000 01005800 00000000  ..........X.....
 0ba0 00000000 0000006c 84000084 84000002  .......l........
 0bb0 00309fb8 840000bc 84000002 00309f00  .0...........0..
 0bc0 00000000 00000000 000000b8 850000d0  ................
 0bd0 85000001 0050d085 00000086 00000300  .....P..........
 0be0 79709f00 00000000 00000000 000000b8  yp..............
 0bf0 850000d0 85000001 0051d085 00000086  .........Q......
 0c00 00000100 58000000 00000000 00000000  ....X...........
 0c10 00b88500 00d08500 00010052 d0850000  ...........R....
 0c20 00860000 01005600 00000000 00000003  ......V.........
 0c30 00000101 000000b8 850000d0 85000002  ................
 0c40 00309fd0 850000f0 85000008 00750079  .0...........u.y
 0c50 001c2310 9ff08500 00f48500 00080075  ..#............u
 0c60 0079001c 23119ff4 85000000 86000008  .y..#...........
 0c70 00750079 001c2310 9f000000 00000000  .u.y..#.........
 0c80 000000d0 850000d4 85000002 00309f00  .............0..
 0c90 00000000 00000000 00000000 00008600  ................
 0ca0 001c8600 00010050 1c860000 b0860000  .......P........
 0cb0 010056b0 860000e0 86000003 0076609f  ..V..........v`.
 0cc0 00000000 00000000 00000000 00000086  ................
 0cd0 00001c86 00000100 511c8600 004c8600  ........Q....L..
 0ce0 00010057 4c860000 e0860000 03007760  ...WL.........w`
 0cf0 9f000000 00000000 00000000 00008600  ................
 0d00 001c8600 00010052 1c860000 e0860000  .......R........
 0d10 01005900 00000000 00000000 00000014  ..Y.............
 0d20 8600001c 86000001 00521c86 00004886  .........R....H.
 0d30 00000100 59000000 00000000 00010000  ....Y...........
 0d40 00088600 001c8600 00010051 1c860000  ...........Q....
 0d50 48860000 01005700 00000000 00000001  H.....W.........
 0d60 00000008 8600001c 86000001 00501c86  .............P..
 0d70 00004886 00000100 56000000 00000000  ..H.....V.......
 0d80 00010000 01010000 00148600 001c8600  ................
 0d90 00020030 9f1c8600 003c8600 0006007a  ...0.....<.....z
 0da0 0076001c 9f3c8600 00408600 0008007a  .v...<...@.....z
 0db0 0076001c 23019f40 86000048 86000006  .v..#..@...H....
 0dc0 007a0076 001c9f00 00000000 00000000  .z.v............
 0dd0 00000000 0000011c 86000020 86000002  ........... ....
 0de0 00309f20 8600002c 86000006 00780077  .0. ...,.....x.w
 0df0 001c9f2c 86000033 86000006 00710077  ...,...3.....q.w
 0e00 001c9f33 86000034 86000007 00770020  ...3...4.....w. 
 0e10 7800229f 00000000 00000000 02004886  x."...........H.
 0e20 00008086 00000100 59000000 00000000  ........Y.......
 0e30 00020000 00488600 004c8600 00030077  .....H...L.....w
 0e40 109f4c86 00008086 00000300 77709f00  ..L.........wp..
 0e50 00000000 00000002 00488600 00808600  .........H......
 0e60 00030076 709f0000 00000000 00000300  ...vp...........
 0e70 00010100 00004886 00005086 00000200  ......H...P.....
 0e80 309f5086 00007086 00000800 7a007600  0.P...p.....z.v.
 0e90 1c23109f 70860000 74860000 08007a00  .#..p...t.....z.
 0ea0 76001c23 119f7486 00008086 00000800  v..#..t.........
 0eb0 7a007600 1c23109f 00000000 00000000  z.v..#..........
 0ec0 00000000 00000001 50860000 54860000  ........P...T...
 0ed0 0200309f 54860000 60860000 08007800  ..0.T...`.....x.
 0ee0 77001c23 109f6086 00006786 00000800  w..#..`...g.....
 0ef0 71007700 1c23109f 67860000 68860000  q.w..#..g...h...
 0f00 08007800 77001c23 0f9f0000 00000000  ..x.w..#........
 0f10 00000001 01000000 80860000 a0860000  ................
 0f20 06007a00 76001c9f a0860000 a4860000  ..z.v...........
 0f30 08007a00 76001c23 019fa486 0000ac86  ..z.v..#........
 0f40 00000600 7a007600 1c9f0000 00000000  ....z.v.........
 0f50 00000000 00000000 00018086 00008486  ................
 0f60 00000200 309f8486 00009086 00000800  ....0...........
 0f70 78007700 1c23109f 90860000 97860000  x.w..#..........
 0f80 08007100 77001c23 109f9786 00009886  ..q.w..#........
 0f90 00000800 78007700 1c230f9f 00000000  ....x.w..#......
 0fa0 00000000 0200ac86 0000e086 00000100  ................
 0fb0 59000000 00000000 000200ac 860000e0  Y...............
 0fc0 86000003 0077709f 00000000 00000000  .....wp.........
 0fd0 02000000 ac860000 b0860000 03007610  ..............v.
 0fe0 9fb08600 00e08600 00030076 709f0000  ...........vp...
 0ff0 00000000 00000300 00010100 0000ac86  ................
 1000 0000b086 00000200 309fb086 0000d086  ........0.......
 1010 00000800 74007600 1c23109f d0860000  ....t.v..#......
 1020 d4860000 08007400 76001c23 119fd486  ......t.v..#....
 1030 0000e086 00000800 74007600 1c23109f  ........t.v..#..
 1040 00000000 00000000 00000000 00000001  ................
 1050 b0860000 b4860000 0200309f b4860000  ..........0.....
 1060 c0860000 08007800 77001c23 109fc086  ......x.w..#....
 1070 0000c786 00000800 71007700 1c23109f  ........q.w..#..
 1080 c7860000 c8860000 08007800 77001c23  ..........x.w..#
 1090 0f9f0000 00000000 00000000 00000000  ................
 10a0 00000000 00000000 cc000000 010051cc  ..............Q.
 10b0 000000e4 00000004 00f30151 9fe40000  ...........Q....
 10c0 00f00000 00010051 f0000000 04010000  .......Q........
 10d0 0400f301 519f0401 00001c01 00000100  ....Q...........
 10e0 51000000 00000000 00000000 00000000  Q...............
 10f0 00010000 00000101 00000000 00000010  ................
 1100 00000001 00521000 00002000 00000100  .....R.... .....
 1110 52200000 00240000 00030072 7f9f2400  R ...$.....r..$.
 1120 00002c00 00000100 522c0000 00380000  ..,.....R,...8..
 1130 00030072 7f9f9c00 0000a000 00000100  ...r............
 1140 52c00000 00c00000 00010052 c0000000  R..........R....
 1150 d0000000 0300727f 9f040100 00140100  ......r.........
 1160 00010052 00000000 00000000 02000002  ...R............
 1170 02000000 00010100 00010100 00000000  ................
 1180 00000000 00002000 00000100 50200000  ...... .....P ..
 1190 002c0000 00010053 2c000000 30000000  .,.....S,...0...
 11a0 03007301 9f300000 00a40000 00010053  ..s..0.........S
 11b0 c0000000 d0000000 010053d0 000000d4  ..........S.....
 11c0 00000003 0073019f d4000000 f4000000  .....s..........
 11d0 010053f4 000000f8 00000003 0073019f  ..S..........s..
 11e0 f8000000 08010000 0100530c 01000014  ..........S.....
 11f0 01000001 00501401 00001c01 00000100  .....P..........
 1200 53000000 00000000 00010000 00000054  S..............T
 1210 000000e4 00000003 0008209f 04010000  .......... .....
 1220 0c010000 03000820 9f140100 001c0100  ....... ........
 1230 00030008 209f0000 00000000 00000000  .... ...........
 1240 00000000 00004c00 0000e000 00000100  ......L.........
 1250 5ee00000 00e40000 002200f3 015108ff  ^........"...Q..
 1260 1af30151 08ff1a38 2421f301 5108ff1a  ...Q...8$!..Q...
 1270 f3015108 ff1a3824 21402421 9f040100  ..Q...8$!@$!....
 1280 000c0100 0001005e 14010000 1c010000  .......^........
 1290 01005e00 00000000 00000001 00010101  ..^.............
 12a0 01010101 00000000 00000101 00000000  ................
 12b0 00000048 00000070 00000001 00537000  ...H...p.....Sp.
 12c0 00007400 00000300 7c749f74 00000078  ..t.....|t.t...x
 12d0 00000003 007c789f 78000000 7c000000  .....|x.x...|...
 12e0 03007c7c 9f7c0000 00840000 0001005c  ..||.|.........\
 12f0 84000000 90000000 03007c70 9f9c0000  ..........|p....
 1300 00a00000 0001005c b0000000 b0000000  .......\........
 1310 01005cb0 000000b4 00000003 007c049f  ..\..........|..
 1320 b4000000 e4000000 01005c04 0100000c  ..........\.....
 1330 01000001 005c1401 00001c01 00000100  .....\..........
 1340 53000000 00000000 00060000 00000000  S...............
 1350 00000000 000000cc 00000006 00710008  .............q..
 1360 ff1a9fcc 000000e4 00000007 00f30151  ...............Q
 1370 08ff1a9f e4000000 f0000000 06007100  ..............q.
 1380 08ff1a9f f0000000 04010000 0700f301  ................
 1390 5108ff1a 9f040100 001c0100 00060071  Q..............q
 13a0 0008ff1a 9f000000 00000000 00        .............   
Contents of section .debug_frame:
 0000 0c000000 ffffffff 0100027c 0e0c0d00  ...........|....
 0010 0c000000 00000000 7c810000 10000000  ........|.......
 0020 0c000000 00000000 8c810000 08000000  ................
 0030 0c000000 00000000 94810000 08000000  ................
 0040 0c000000 00000000 9c810000 08000000  ................
 0050 0c000000 00000000 a4810000 08000000  ................
 0060 0c000000 00000000 ac810000 1c000000  ................
 0070 0c000000 00000000 c8810000 08000000  ................
 0080 0c000000 00000000 d0810000 04000000  ................
 0090 0c000000 00000000 d4810000 04000000  ................
 00a0 0c000000 00000000 d8810000 08000000  ................
 00b0 0c000000 ffffffff 0100027c 0e0c0d00  ...........|....
 00c0 0c000000 b0000000 e0810000 30000000  ............0...
 00d0 0c000000 b0000000 10820000 2c000000  ............,...
 00e0 0c000000 b0000000 3c820000 58000000  ........<...X...
 00f0 14000000 b0000000 94820000 44000000  ............D...
 0100 4c0e048e 01000000 18000000 b0000000  L...............
 0110 d8820000 2c010000 420e1084 04850386  ....,...B.......
 0120 028e0100 0c000000 b0000000 04840000  ................
 0130 30000000 0c000000 ffffffff 0100027c  0..............|
 0140 0e0c0d00 2c000000 34010000 34840000  ....,...4...4...
 0150 b8000000 420e2484 09850886 07870688  ....B.$.........
 0160 0589048a 038b028e 01420e30 7c0a0e24  .........B.0|..$
 0170 420b0000 18000000 34010000 ec840000  B.......4.......
 0180 cc000000 440e1084 04850386 028e0100  ....D...........
 0190 20000000 34010000 b8850000 48000000   ...4.......H...
 01a0 420e2084 08850786 06870588 0489038a  B. .............
 01b0 028e0100 20000000 34010000 00860000  .... ...4.......
 01c0 e0000000 420e2084 08850786 06870588  ....B. .........
 01d0 0489038a 028e0100 24000000 34010000  ........$...4...
 01e0 fc870000 f0010000 420e2484 09850886  ........B.$.....
 01f0 07870688 0589048a 038b028e 01420e30  .............B.0
 0200 0c000000 ffffffff 0100027c 0e0c0d00  ...........|....
 0210 34000000 00020000 e0860000 1c010000  4...............
 0220 620e0c84 0385028e 01024ece c5c40e00  b.........N.....
 0230 520e0c84 0385028e 01440e00 c4c5ce44  R........D.....D
 0240 0e0c8403 85028e01                    ........        
Contents of section .debug_ranges:
 0000 34840000 34840000 44840000 b0840000  4...4...D.......
 0010 bc840000 ec840000 00000000 00000000  ................
 0020 6c840000 a0840000 bc840000 d8840000  l...............
 0030 00000000 00000000 08850000 08850000  ................
 0040 08850000 08850000 0c850000 34850000  ............4...
 0050 60850000 64850000 00000000 00000000  `...d...........
 0060 08850000 08850000 0c850000 28850000  ............(...
 0070 00000000 00000000 34850000 34850000  ........4...4...
 0080 38850000 60850000 8c850000 90850000  8...`...........
 0090 00000000 00000000 34850000 34850000  ........4...4...
 00a0 38850000 54850000 00000000 00000000  8...T...........
 00b0 60850000 60850000 64850000 8c850000  `...`...d.......
 00c0 00000000 00000000 60850000 60850000  ........`...`...
 00d0 64850000 80850000 00000000 00000000  d...............
 00e0 8c850000 8c850000 90850000 b8850000  ................
 00f0 00000000 00000000 8c850000 8c850000  ................
 0100 90850000 ac850000 00000000 00000000  ................
 0110 b8850000 b8850000 d0850000 00860000  ................
 0120 00000000 00000000 14860000 14860000  ................
 0130 1c860000 1c860000 20860000 48860000  ........ ...H...
 0140 00000000 00000000 1c860000 1c860000  ................
 0150 20860000 3c860000 00000000 00000000   ...<...........
 0160 48860000 4c860000 50860000 50860000  H...L...P...P...
 0170 54860000 80860000 b0860000 b4860000  T...............
 0180 00000000 00000000 50860000 50860000  ........P...P...
 0190 54860000 70860000 00000000 00000000  T...p...........
 01a0 80860000 80860000 84860000 ac860000  ................
 01b0 00000000 00000000 80860000 80860000  ................
 01c0 84860000 a0860000 00000000 00000000  ................
 01d0 ac860000 b0860000 b4860000 e0860000  ................
 01e0 00000000 00000000 b0860000 b0860000  ................
 01f0 b4860000 d0860000 00000000 00000000  ................
 0200 5c880000 5c880000 60880000 60880000  \...\...`...`...
 0210 64880000 90880000 94880000 18890000  d...............
 0220 28890000 2c890000 58890000 5c890000  (...,...X...\...
 0230 00000000 00000000 5c880000 5c880000  ........\...\...
 0240 60880000 60880000 64880000 90880000  `...`...d.......
 0250 c0880000 c4880000 00000000 00000000  ................
 0260 60880000 60880000 64880000 80880000  `...`...d.......
 0270 00000000 00000000 90880000 90880000  ................
 0280 94880000 c0880000 ec880000 f0880000  ................
 0290 28890000 2c890000 58890000 5c890000  (...,...X...\...
 02a0 00000000 00000000 90880000 90880000  ................
 02b0 94880000 b0880000 00000000 00000000  ................
 02c0 c0880000 c0880000 c4880000 ec880000  ................
 02d0 00000000 00000000 c0880000 c0880000  ................
 02e0 c4880000 e0880000 00000000 00000000  ................
 02f0 ec880000 ec880000 f0880000 18890000  ................
 0300 00000000 00000000 ec880000 ec880000  ................
 0310 f0880000 0c890000 00000000 00000000  ................
 0320 28890000 28890000 2c890000 58890000  (...(...,...X...
 0330 5c890000 e8890000 00000000 00000000  \...............
 0340 28890000 28890000 2c890000 58890000  (...(...,...X...
 0350 84890000 88890000 b0890000 b4890000  ................
 0360 00000000 00000000 28890000 28890000  ........(...(...
 0370 2c890000 48890000 00000000 00000000  ,...H...........
 0380 58890000 58890000 5c890000 84890000  X...X...\.......
 0390 00000000 00000000 58890000 58890000  ........X...X...
 03a0 5c890000 78890000 00000000 00000000  \...x...........
 03b0 84890000 84890000 88890000 b0890000  ................
 03c0 00000000 00000000 84890000 84890000  ................
 03d0 88890000 a4890000 00000000 00000000  ................
 03e0 b0890000 b0890000 b4890000 e8890000  ................
 03f0 00000000 00000000 b0890000 b0890000  ................
 0400 b4890000 d0890000 00000000 00000000  ................
 0410 34840000 e0860000 fc870000 ec890000  4...............
 0420 00000000 00000000                    ........        

Disassembly of section .text:

00008000 <start>:
    8000:	e3a000d3 	mov	r0, #211	; 0xd3
    8004:	e121f000 	msr	CPSR_c, r0
    8008:	e59fd028 	ldr	sp, [pc, #40]	; 8038 <delay+0xc>
    800c:	e59f0028 	ldr	r0, [pc, #40]	; 803c <delay+0x10>
    8010:	e59f1028 	ldr	r1, [pc, #40]	; 8040 <delay+0x14>
    8014:	e3a02000 	mov	r2, #0

00008018 <loop_bss>:
    8018:	e1500001 	cmp	r0, r1
    801c:	aa000001 	bge	8028 <done_bss>
    8020:	e4c02001 	strb	r2, [r0], #1
    8024:	eafffffb 	b	8018 <loop_bss>

00008028 <done_bss>:
    8028:	ea0001f3 	b	87fc <main>

0000802c <delay>:
    802c:	e2500001 	subs	r0, r0, #1
    8030:	1afffffd 	bne	802c <delay>
    8034:	e1a0f00e 	mov	pc, lr
    8038:	00010aa8 	.word	0x00010aa8
    803c:	00008a10 	.word	0x00008a10
    8040:	00008aa4 	.word	0x00008aa4

00008044 <get_arm_mode>:
    8044:	e10f0000 	mrs	r0, CPSR
    8048:	e200001f 	and	r0, r0, #31
    804c:	e1a0f00e 	mov	pc, lr

00008050 <set_arm_mode>:
    8050:	e10f1000 	mrs	r1, CPSR
    8054:	e3c1101f 	bic	r1, r1, #31
    8058:	e3c0001f 	bic	r0, r0, #31
    805c:	e1811000 	orr	r1, r1, r0
    8060:	e129f001 	msr	CPSR_fc, r1
    8064:	e1a0f00e 	mov	pc, lr

00008068 <get_core>:
    8068:	ee100fb0 	mrc	15, 0, r0, cr0, cr0, {5}
    806c:	e2000003 	and	r0, r0, #3
    8070:	e1a0f00e 	mov	pc, lr

00008074 <enable_irq>:
    8074:	e3500000 	cmp	r0, #0
    8078:	0a000003 	beq	808c <disable_irq>
    807c:	e10f0000 	mrs	r0, CPSR
    8080:	e3c00080 	bic	r0, r0, #128	; 0x80
    8084:	e129f000 	msr	CPSR_fc, r0
    8088:	e1a0f00e 	mov	pc, lr

0000808c <disable_irq>:
    808c:	e10f0000 	mrs	r0, CPSR
    8090:	e3800080 	orr	r0, r0, #128	; 0x80
    8094:	e129f000 	msr	CPSR_fc, r0
    8098:	e1a0f00e 	mov	pc, lr

0000809c <enable_fiq>:
    809c:	e3500000 	cmp	r0, #0
    80a0:	0a000003 	beq	80b4 <disable_fiq>
    80a4:	e10f0000 	mrs	r0, CPSR
    80a8:	e3c00040 	bic	r0, r0, #64	; 0x40
    80ac:	e129f000 	msr	CPSR_fc, r0
    80b0:	e1a0f00e 	mov	pc, lr

000080b4 <disable_fiq>:
    80b4:	e10f0000 	mrs	r0, CPSR
    80b8:	e3800040 	orr	r0, r0, #64	; 0x40
    80bc:	e129f000 	msr	CPSR_fc, r0
    80c0:	e1a0f00e 	mov	pc, lr

000080c4 <init_core>:
    80c4:	e2000003 	and	r0, r0, #3
    80c8:	e59f20a4 	ldr	r2, [pc, #164]	; 8174 <put_lock+0x10>
    80cc:	e3e03000 	mvn	r3, #0
    80d0:	e7823200 	str	r3, [r2, r0, lsl #4]
    80d4:	e59f209c 	ldr	r2, [pc, #156]	; 8178 <put_lock+0x14>
    80d8:	e7821200 	str	r1, [r2, r0, lsl #4]
    80dc:	e320f004 	sev
    80e0:	e1a0f00e 	mov	pc, lr

000080e4 <enable_cache>:
    80e4:	ee110f10 	mrc	15, 0, r0, cr1, cr0, {0}
    80e8:	e3800b06 	orr	r0, r0, #6144	; 0x1800
    80ec:	e3800004 	orr	r0, r0, #4
    80f0:	ee010f10 	mcr	15, 0, r0, cr1, cr0, {0}
    80f4:	e1a0f00e 	mov	pc, lr

000080f8 <disable_mmu>:
    80f8:	ee112f10 	mrc	15, 0, r2, cr1, cr0, {0}
    80fc:	e3c22a01 	bic	r2, r2, #4096	; 0x1000
    8100:	e3c22005 	bic	r2, r2, #5
    8104:	ee012f10 	mcr	15, 0, r2, cr1, cr0, {0}
    8108:	f57ff04f 	dsb	sy
    810c:	e1a0f00e 	mov	pc, lr

00008110 <enable_mmu>:
    8110:	e3e02000 	mvn	r2, #0
    8114:	e3c2200c 	bic	r2, r2, #12
    8118:	ee032f10 	mcr	15, 0, r2, cr3, cr0, {0}
    811c:	ee020f10 	mcr	15, 0, r0, cr2, cr0, {0}
    8120:	ee020f30 	mcr	15, 0, r0, cr2, cr0, {1}
    8124:	ee112f10 	mrc	15, 0, r2, cr1, cr0, {0}
    8128:	e3822005 	orr	r2, r2, #5
    812c:	ee012f10 	mcr	15, 0, r2, cr1, cr0, {0}
    8130:	e1a0f00e 	mov	pc, lr

00008134 <flush_tlb>:
    8134:	e3a02000 	mov	r2, #0
    8138:	ee082f17 	mcr	15, 0, r2, cr8, cr7, {0}
    813c:	ee072f9a 	mcr	15, 0, r2, cr7, cr10, {4}
    8140:	f57ff04f 	dsb	sy
    8144:	e1a0f00e 	mov	pc, lr

00008148 <get_lock>:
    8148:	e1902f9f 	ldrex	r2, [r0]
    814c:	e3520000 	cmp	r2, #0
    8150:	01802f91 	strexeq	r2, r1, [r0]
    8154:	03520000 	cmpeq	r2, #0
    8158:	1afffffa 	bne	8148 <get_lock>
    815c:	f57ff05f 	dmb	sy
    8160:	e1a0f00e 	mov	pc, lr

00008164 <put_lock>:
    8164:	e3a02000 	mov	r2, #0
    8168:	f57ff05f 	dmb	sy
    816c:	e5802000 	str	r2, [r0]
    8170:	e1a0f00e 	mov	pc, lr
    8174:	400000cc 	.word	0x400000cc
    8178:	4000008c 	.word	0x4000008c

0000817c <_fstat>:
    817c:	e3a03a02 	mov	r3, #8192	; 0x2000
    8180:	e5813004 	str	r3, [r1, #4]
    8184:	e3a00000 	mov	r0, #0
    8188:	e12fff1e 	bx	lr

0000818c <_lseek>:
    818c:	e3a00000 	mov	r0, #0
    8190:	e12fff1e 	bx	lr

00008194 <_close>:
    8194:	e3e00000 	mvn	r0, #0
    8198:	e12fff1e 	bx	lr

0000819c <_write>:
    819c:	e1a00002 	mov	r0, r2
    81a0:	e12fff1e 	bx	lr

000081a4 <_read>:
    81a4:	e3a00000 	mov	r0, #0
    81a8:	e12fff1e 	bx	lr

000081ac <_sbrk>:
    81ac:	e1a02000 	mov	r2, r0
    81b0:	e3083a04 	movw	r3, #35332	; 0x8a04
    81b4:	e3403000 	movt	r3, #0
    81b8:	e5930000 	ldr	r0, [r3]
    81bc:	e0802002 	add	r2, r0, r2
    81c0:	e5832000 	str	r2, [r3]
    81c4:	e12fff1e 	bx	lr

000081c8 <_isatty>:
    81c8:	e3a00001 	mov	r0, #1
    81cc:	e12fff1e 	bx	lr

000081d0 <_exit>:
    81d0:	eafffffe 	b	81d0 <_exit>

000081d4 <_kill>:
    81d4:	e12fff1e 	bx	lr

000081d8 <_getpid>:
    81d8:	e3a00001 	mov	r0, #1
    81dc:	e12fff1e 	bx	lr

000081e0 <gpu_read>:
    81e0:	e200100f 	and	r1, r0, #15
    81e4:	e3a02b2e 	mov	r2, #47104	; 0xb800
    81e8:	e3432f00 	movt	r2, #16128	; 0x3f00
    81ec:	e5923098 	ldr	r3, [r2, #152]	; 0x98
    81f0:	e3130101 	tst	r3, #1073741824	; 0x40000000
    81f4:	1afffffc 	bne	81ec <gpu_read+0xc>
    81f8:	e5920080 	ldr	r0, [r2, #128]	; 0x80
    81fc:	e200300f 	and	r3, r0, #15
    8200:	e1530001 	cmp	r3, r1
    8204:	1afffff8 	bne	81ec <gpu_read+0xc>
    8208:	e1a00220 	lsr	r0, r0, #4
    820c:	e12fff1e 	bx	lr

00008210 <gpu_write>:
    8210:	e200000f 	and	r0, r0, #15
    8214:	e3a02b2e 	mov	r2, #47104	; 0xb800
    8218:	e3432f00 	movt	r2, #16128	; 0x3f00
    821c:	e5923098 	ldr	r3, [r2, #152]	; 0x98
    8220:	e3530000 	cmp	r3, #0
    8224:	bafffffc 	blt	821c <gpu_write+0xc>
    8228:	e1800201 	orr	r0, r0, r1, lsl #4
    822c:	e3a03b2e 	mov	r3, #47104	; 0xb800
    8230:	e3433f00 	movt	r3, #16128	; 0x3f00
    8234:	e58300a0 	str	r0, [r3, #160]	; 0xa0
    8238:	e12fff1e 	bx	lr

0000823c <gpu_msg>:
    823c:	e200c00f 	and	ip, r0, #15
    8240:	e3a02b2e 	mov	r2, #47104	; 0xb800
    8244:	e3432f00 	movt	r2, #16128	; 0x3f00
    8248:	e5923098 	ldr	r3, [r2, #152]	; 0x98
    824c:	e3530000 	cmp	r3, #0
    8250:	bafffffc 	blt	8248 <gpu_msg+0xc>
    8254:	e3c1300f 	bic	r3, r1, #15
    8258:	e183300c 	orr	r3, r3, ip
    825c:	e3a02b2e 	mov	r2, #47104	; 0xb800
    8260:	e3432f00 	movt	r2, #16128	; 0x3f00
    8264:	e58230a0 	str	r3, [r2, #160]	; 0xa0
    8268:	e3a02b2e 	mov	r2, #47104	; 0xb800
    826c:	e3432f00 	movt	r2, #16128	; 0x3f00
    8270:	e5923098 	ldr	r3, [r2, #152]	; 0x98
    8274:	e3130101 	tst	r3, #1073741824	; 0x40000000
    8278:	1afffffc 	bne	8270 <gpu_msg+0x34>
    827c:	e5920080 	ldr	r0, [r2, #128]	; 0x80
    8280:	e200300f 	and	r3, r0, #15
    8284:	e15c0003 	cmp	ip, r3
    8288:	1afffff8 	bne	8270 <gpu_msg+0x34>
    828c:	e3c0000f 	bic	r0, r0, #15
    8290:	e12fff1e 	bx	lr

00008294 <fb_pixel>:
    8294:	e3083a10 	movw	r3, #35344	; 0x8a10
    8298:	e3403000 	movt	r3, #0
    829c:	e593c000 	ldr	ip, [r3]
    82a0:	e35c0000 	cmp	ip, #0
    82a4:	012fff1e 	bxeq	lr
    82a8:	e52de004 	push	{lr}		; (str lr, [sp, #-4]!)
    82ac:	e3083a10 	movw	r3, #35344	; 0x8a10
    82b0:	e3403000 	movt	r3, #0
    82b4:	e593e004 	ldr	lr, [r3, #4]
    82b8:	e1a00080 	lsl	r0, r0, #1
    82bc:	e021019e 	mla	r1, lr, r1, r0
    82c0:	e7cc2001 	strb	r2, [ip, r1]
    82c4:	e5933000 	ldr	r3, [r3]
    82c8:	e0831001 	add	r1, r3, r1
    82cc:	e1a02422 	lsr	r2, r2, #8
    82d0:	e5c12001 	strb	r2, [r1, #1]
    82d4:	e49df004 	pop	{pc}		; (ldr pc, [sp], #4)

000082d8 <init_fb>:
    82d8:	e92d4070 	push	{r4, r5, r6, lr}
    82dc:	e3084a10 	movw	r4, #35344	; 0x8a10
    82e0:	e3404000 	movt	r4, #0
    82e4:	e2845010 	add	r5, r4, #16
    82e8:	e3a0207c 	mov	r2, #124	; 0x7c
    82ec:	e3a01000 	mov	r1, #0
    82f0:	e2840014 	add	r0, r4, #20
    82f4:	eb0000f9 	bl	86e0 <memset>
    82f8:	e3a03068 	mov	r3, #104	; 0x68
    82fc:	e5843010 	str	r3, [r4, #16]
    8300:	e3a03001 	mov	r3, #1
    8304:	e3403004 	movt	r3, #4
    8308:	e5843018 	str	r3, [r4, #24]
    830c:	e3a00008 	mov	r0, #8
    8310:	e584001c 	str	r0, [r4, #28]
    8314:	e5840020 	str	r0, [r4, #32]
    8318:	e3a03010 	mov	r3, #16
    831c:	e5843024 	str	r3, [r4, #36]	; 0x24
    8320:	e3083003 	movw	r3, #32771	; 0x8003
    8324:	e3403004 	movt	r3, #4
    8328:	e584302c 	str	r3, [r4, #44]	; 0x2c
    832c:	e5840030 	str	r0, [r4, #48]	; 0x30
    8330:	e5840034 	str	r0, [r4, #52]	; 0x34
    8334:	e3082a08 	movw	r2, #35336	; 0x8a08
    8338:	e3402000 	movt	r2, #0
    833c:	e1d210b0 	ldrh	r1, [r2]
    8340:	e5841038 	str	r1, [r4, #56]	; 0x38
    8344:	e1d230b2 	ldrh	r3, [r2, #2]
    8348:	e584303c 	str	r3, [r4, #60]	; 0x3c
    834c:	e308c004 	movw	ip, #32772	; 0x8004
    8350:	e340c004 	movt	ip, #4
    8354:	e584c040 	str	ip, [r4, #64]	; 0x40
    8358:	e5840044 	str	r0, [r4, #68]	; 0x44
    835c:	e5840048 	str	r0, [r4, #72]	; 0x48
    8360:	e584104c 	str	r1, [r4, #76]	; 0x4c
    8364:	e5843050 	str	r3, [r4, #80]	; 0x50
    8368:	e3083005 	movw	r3, #32773	; 0x8005
    836c:	e3403004 	movt	r3, #4
    8370:	e5843054 	str	r3, [r4, #84]	; 0x54
    8374:	e3a03004 	mov	r3, #4
    8378:	e5843058 	str	r3, [r4, #88]	; 0x58
    837c:	e584305c 	str	r3, [r4, #92]	; 0x5c
    8380:	e1d220b4 	ldrh	r2, [r2, #4]
    8384:	e5842060 	str	r2, [r4, #96]	; 0x60
    8388:	e3082008 	movw	r2, #32776	; 0x8008
    838c:	e7df2813 	bfi	r2, r3, #16, #16
    8390:	e5842064 	str	r2, [r4, #100]	; 0x64
    8394:	e5843068 	str	r3, [r4, #104]	; 0x68
    8398:	e584306c 	str	r3, [r4, #108]	; 0x6c
    839c:	e1a01005 	mov	r1, r5
    83a0:	ebffffa5 	bl	823c <gpu_msg>
    83a4:	e5943014 	ldr	r3, [r4, #20]
    83a8:	e3530102 	cmp	r3, #-2147483648	; 0x80000000
    83ac:	0a000001 	beq	83b8 <init_fb+0xe0>
    83b0:	e3a00000 	mov	r0, #0
    83b4:	e8bd8070 	pop	{r4, r5, r6, pc}
    83b8:	e5940024 	ldr	r0, [r4, #36]	; 0x24
    83bc:	e3c00103 	bic	r0, r0, #-1073741824	; 0xc0000000
    83c0:	e5840000 	str	r0, [r4]
    83c4:	e5942028 	ldr	r2, [r4, #40]	; 0x28
    83c8:	e5842090 	str	r2, [r4, #144]	; 0x90
    83cc:	e3081a08 	movw	r1, #35336	; 0x8a08
    83d0:	e3401000 	movt	r1, #0
    83d4:	e594c038 	ldr	ip, [r4, #56]	; 0x38
    83d8:	e1c1c0b0 	strh	ip, [r1]
    83dc:	e594c03c 	ldr	ip, [r4, #60]	; 0x3c
    83e0:	e1c1c0b2 	strh	ip, [r1, #2]
    83e4:	e594c060 	ldr	ip, [r4, #96]	; 0x60
    83e8:	e1c1c0b4 	strh	ip, [r1, #4]
    83ec:	e5941070 	ldr	r1, [r4, #112]	; 0x70
    83f0:	e5841004 	str	r1, [r4, #4]
    83f4:	e3a01000 	mov	r1, #0
    83f8:	eb0000b8 	bl	86e0 <memset>
    83fc:	e3a00001 	mov	r0, #1
    8400:	e8bd8070 	pop	{r4, r5, r6, pc}

00008404 <pack_color>:
    8404:	e3083a08 	movw	r3, #35336	; 0x8a08
    8408:	e3403000 	movt	r3, #0
    840c:	e1d330b4 	ldrh	r3, [r3, #4]
    8410:	e3530010 	cmp	r3, #16
    8414:	01a001a0 	lsreq	r0, r0, #3
    8418:	01a01121 	lsreq	r1, r1, #2
    841c:	01810280 	orreq	r0, r1, r0, lsl #5
    8420:	01a021a2 	lsreq	r2, r2, #3
    8424:	01820300 	orreq	r0, r2, r0, lsl #6
    8428:	11822401 	orrne	r2, r2, r1, lsl #8
    842c:	11820800 	orrne	r0, r2, r0, lsl #16
    8430:	e12fff1e 	bx	lr

00008434 <draw_line>:
    8434:	e92d4ff0 	push	{r4, r5, r6, r7, r8, r9, sl, fp, lr}
    8438:	e24dd00c 	sub	sp, sp, #12
    843c:	e5ddc034 	ldrb	ip, [sp, #52]	; 0x34
    8440:	e58dc004 	str	ip, [sp, #4]
    8444:	e59dc030 	ldr	ip, [sp, #48]	; 0x30
    8448:	e35c0000 	cmp	ip, #0
    844c:	da000017 	ble	84b0 <draw_line+0x7c>
    8450:	e0827001 	add	r7, r2, r1
    8454:	e1a04000 	mov	r4, r0
    8458:	e0826000 	add	r6, r2, r0
    845c:	e1a05001 	mov	r5, r1
    8460:	e1a09002 	mov	r9, r2
    8464:	e1a0a003 	mov	sl, r3
    8468:	e3a08000 	mov	r8, #0
    846c:	e3590000 	cmp	r9, #0
    8470:	da00000a 	ble	84a0 <draw_line+0x6c>
    8474:	e59d3004 	ldr	r3, [sp, #4]
    8478:	e3530000 	cmp	r3, #0
    847c:	1a00000d 	bne	84b8 <draw_line+0x84>
    8480:	e1a0b004 	mov	fp, r4
    8484:	e1a0000b 	mov	r0, fp
    8488:	e1a0200a 	mov	r2, sl
    848c:	e1a01005 	mov	r1, r5
    8490:	e28bb001 	add	fp, fp, #1
    8494:	ebffff7e 	bl	8294 <fb_pixel>
    8498:	e15b0006 	cmp	fp, r6
    849c:	1afffff8 	bne	8484 <draw_line+0x50>
    84a0:	e59d3030 	ldr	r3, [sp, #48]	; 0x30
    84a4:	e2888001 	add	r8, r8, #1
    84a8:	e1530008 	cmp	r3, r8
    84ac:	1affffee 	bne	846c <draw_line+0x38>
    84b0:	e28dd00c 	add	sp, sp, #12
    84b4:	e8bd8ff0 	pop	{r4, r5, r6, r7, r8, r9, sl, fp, pc}
    84b8:	e1a0b005 	mov	fp, r5
    84bc:	e1a0100b 	mov	r1, fp
    84c0:	e1a0200a 	mov	r2, sl
    84c4:	e1a00004 	mov	r0, r4
    84c8:	e28bb001 	add	fp, fp, #1
    84cc:	ebffff70 	bl	8294 <fb_pixel>
    84d0:	e15b0007 	cmp	fp, r7
    84d4:	1afffff8 	bne	84bc <draw_line+0x88>
    84d8:	e59d3030 	ldr	r3, [sp, #48]	; 0x30
    84dc:	e2888001 	add	r8, r8, #1
    84e0:	e1530008 	cmp	r3, r8
    84e4:	1affffe0 	bne	846c <draw_line+0x38>
    84e8:	eafffff0 	b	84b0 <draw_line+0x7c>

000084ec <draw_frame>:
    84ec:	e3a020ff 	mov	r2, #255	; 0xff
    84f0:	e92d4070 	push	{r4, r5, r6, lr}
    84f4:	e1a01002 	mov	r1, r2
    84f8:	e1a00002 	mov	r0, r2
    84fc:	e3a06004 	mov	r6, #4
    8500:	ebffffbf 	bl	8404 <pack_color>
    8504:	e1a05000 	mov	r5, r0
    8508:	e3a04088 	mov	r4, #136	; 0x88
    850c:	e1a01004 	mov	r1, r4
    8510:	e1a02005 	mov	r2, r5
    8514:	e3a00f4f 	mov	r0, #316	; 0x13c
    8518:	e2844001 	add	r4, r4, #1
    851c:	ebffff5c 	bl	8294 <fb_pixel>
    8520:	e3540e1d 	cmp	r4, #464	; 0x1d0
    8524:	1afffff8 	bne	850c <draw_frame+0x20>
    8528:	e2566001 	subs	r6, r6, #1
    852c:	1afffff5 	bne	8508 <draw_frame+0x1c>
    8530:	e3a06004 	mov	r6, #4
    8534:	e3a04088 	mov	r4, #136	; 0x88
    8538:	e1a01004 	mov	r1, r4
    853c:	e1a02005 	mov	r2, r5
    8540:	e3a00f79 	mov	r0, #484	; 0x1e4
    8544:	e2844001 	add	r4, r4, #1
    8548:	ebffff51 	bl	8294 <fb_pixel>
    854c:	e3540e1d 	cmp	r4, #464	; 0x1d0
    8550:	1afffff8 	bne	8538 <draw_frame+0x4c>
    8554:	e2566001 	subs	r6, r6, #1
    8558:	1afffff5 	bne	8534 <draw_frame+0x48>
    855c:	e3a06004 	mov	r6, #4
    8560:	e3a04f4f 	mov	r4, #316	; 0x13c
    8564:	e1a00004 	mov	r0, r4
    8568:	e1a02005 	mov	r2, r5
    856c:	e3a01088 	mov	r1, #136	; 0x88
    8570:	e2844001 	add	r4, r4, #1
    8574:	ebffff46 	bl	8294 <fb_pixel>
    8578:	e3540f79 	cmp	r4, #484	; 0x1e4
    857c:	1afffff8 	bne	8564 <draw_frame+0x78>
    8580:	e2566001 	subs	r6, r6, #1
    8584:	1afffff5 	bne	8560 <draw_frame+0x74>
    8588:	e3a06004 	mov	r6, #4
    858c:	e3a04f4f 	mov	r4, #316	; 0x13c
    8590:	e1a00004 	mov	r0, r4
    8594:	e1a02005 	mov	r2, r5
    8598:	e3a01e1d 	mov	r1, #464	; 0x1d0
    859c:	e2844001 	add	r4, r4, #1
    85a0:	ebffff3b 	bl	8294 <fb_pixel>
    85a4:	e3540f79 	cmp	r4, #484	; 0x1e4
    85a8:	1afffff8 	bne	8590 <draw_frame+0xa4>
    85ac:	e2566001 	subs	r6, r6, #1
    85b0:	1afffff5 	bne	858c <draw_frame+0xa0>
    85b4:	e8bd8070 	pop	{r4, r5, r6, pc}

000085b8 <draw_square>:
    85b8:	e92d47f0 	push	{r4, r5, r6, r7, r8, r9, sl, lr}
    85bc:	e1a08001 	mov	r8, r1
    85c0:	e1a05000 	mov	r5, r0
    85c4:	e1a06002 	mov	r6, r2
    85c8:	e2809010 	add	r9, r0, #16
    85cc:	e2817010 	add	r7, r1, #16
    85d0:	e1a04008 	mov	r4, r8
    85d4:	e1a01004 	mov	r1, r4
    85d8:	e1a02006 	mov	r2, r6
    85dc:	e1a00005 	mov	r0, r5
    85e0:	e2844001 	add	r4, r4, #1
    85e4:	ebffff2a 	bl	8294 <fb_pixel>
    85e8:	e1570004 	cmp	r7, r4
    85ec:	1afffff8 	bne	85d4 <draw_square+0x1c>
    85f0:	e2855001 	add	r5, r5, #1
    85f4:	e1550009 	cmp	r5, r9
    85f8:	1afffff4 	bne	85d0 <draw_square+0x18>
    85fc:	e8bd87f0 	pop	{r4, r5, r6, r7, r8, r9, sl, pc}

00008600 <draw_block>:
    8600:	e92d47f0 	push	{r4, r5, r6, r7, r8, r9, sl, lr}
    8604:	e1a06000 	mov	r6, r0
    8608:	e1a07001 	mov	r7, r1
    860c:	e2804010 	add	r4, r0, #16
    8610:	e1a09002 	mov	r9, r2
    8614:	e1a0a000 	mov	sl, r0
    8618:	e2815010 	add	r5, r1, #16
    861c:	e1a08007 	mov	r8, r7
    8620:	e1a01008 	mov	r1, r8
    8624:	e1a02009 	mov	r2, r9
    8628:	e2888001 	add	r8, r8, #1
    862c:	e1a0000a 	mov	r0, sl
    8630:	ebffff17 	bl	8294 <fb_pixel>
    8634:	e1580005 	cmp	r8, r5
    8638:	1afffff8 	bne	8620 <draw_block+0x20>
    863c:	e28aa001 	add	sl, sl, #1
    8640:	e15a0004 	cmp	sl, r4
    8644:	1afffff4 	bne	861c <draw_block+0x1c>
    8648:	e2877020 	add	r7, r7, #32
    864c:	e246a010 	sub	sl, r6, #16
    8650:	e1a08005 	mov	r8, r5
    8654:	e1a01008 	mov	r1, r8
    8658:	e1a02009 	mov	r2, r9
    865c:	e2888001 	add	r8, r8, #1
    8660:	e1a0000a 	mov	r0, sl
    8664:	ebffff0a 	bl	8294 <fb_pixel>
    8668:	e1580007 	cmp	r8, r7
    866c:	1afffff8 	bne	8654 <draw_block+0x54>
    8670:	e28aa001 	add	sl, sl, #1
    8674:	e15a0006 	cmp	sl, r6
    8678:	1afffff4 	bne	8650 <draw_block+0x50>
    867c:	e1a0a006 	mov	sl, r6
    8680:	e1a08005 	mov	r8, r5
    8684:	e1a01008 	mov	r1, r8
    8688:	e1a02009 	mov	r2, r9
    868c:	e2888001 	add	r8, r8, #1
    8690:	e1a0000a 	mov	r0, sl
    8694:	ebfffefe 	bl	8294 <fb_pixel>
    8698:	e1580007 	cmp	r8, r7
    869c:	1afffff8 	bne	8684 <draw_block+0x84>
    86a0:	e28aa001 	add	sl, sl, #1
    86a4:	e15a0004 	cmp	sl, r4
    86a8:	1afffff4 	bne	8680 <draw_block+0x80>
    86ac:	e2866020 	add	r6, r6, #32
    86b0:	e1a08005 	mov	r8, r5
    86b4:	e1a01008 	mov	r1, r8
    86b8:	e1a02009 	mov	r2, r9
    86bc:	e2888001 	add	r8, r8, #1
    86c0:	e1a00004 	mov	r0, r4
    86c4:	ebfffef2 	bl	8294 <fb_pixel>
    86c8:	e1580007 	cmp	r8, r7
    86cc:	1afffff8 	bne	86b4 <draw_block+0xb4>
    86d0:	e2844001 	add	r4, r4, #1
    86d4:	e1540006 	cmp	r4, r6
    86d8:	1afffff4 	bne	86b0 <draw_block+0xb0>
    86dc:	e8bd87f0 	pop	{r4, r5, r6, r7, r8, r9, sl, pc}

000086e0 <memset>:
    86e0:	e3100003 	tst	r0, #3
    86e4:	0a000040 	beq	87ec <memset+0x10c>
    86e8:	e3520000 	cmp	r2, #0
    86ec:	e2422001 	sub	r2, r2, #1
    86f0:	012fff1e 	bxeq	lr
    86f4:	e1a03000 	mov	r3, r0
    86f8:	e201c0ff 	and	ip, r1, #255	; 0xff
    86fc:	ea000002 	b	870c <memset+0x2c>
    8700:	e2422001 	sub	r2, r2, #1
    8704:	e3720001 	cmn	r2, #1
    8708:	012fff1e 	bxeq	lr
    870c:	e4c3c001 	strb	ip, [r3], #1
    8710:	e3130003 	tst	r3, #3
    8714:	1afffff9 	bne	8700 <memset+0x20>
    8718:	e3520003 	cmp	r2, #3
    871c:	9a000028 	bls	87c4 <memset+0xe4>
    8720:	e92d4030 	push	{r4, r5, lr}
    8724:	e201e0ff 	and	lr, r1, #255	; 0xff
    8728:	e18ee40e 	orr	lr, lr, lr, lsl #8
    872c:	e352000f 	cmp	r2, #15
    8730:	e18ee80e 	orr	lr, lr, lr, lsl #16
    8734:	9a00002e 	bls	87f4 <memset+0x114>
    8738:	e242c010 	sub	ip, r2, #16
    873c:	e3cc400f 	bic	r4, ip, #15
    8740:	e2835020 	add	r5, r3, #32
    8744:	e0855004 	add	r5, r5, r4
    8748:	e1a0422c 	lsr	r4, ip, #4
    874c:	e283c010 	add	ip, r3, #16
    8750:	e50ce010 	str	lr, [ip, #-16]
    8754:	e50ce00c 	str	lr, [ip, #-12]
    8758:	e50ce008 	str	lr, [ip, #-8]
    875c:	e50ce004 	str	lr, [ip, #-4]
    8760:	e28cc010 	add	ip, ip, #16
    8764:	e15c0005 	cmp	ip, r5
    8768:	1afffff8 	bne	8750 <memset+0x70>
    876c:	e284c001 	add	ip, r4, #1
    8770:	e312000c 	tst	r2, #12
    8774:	e083c20c 	add	ip, r3, ip, lsl #4
    8778:	e202200f 	and	r2, r2, #15
    877c:	0a000018 	beq	87e4 <memset+0x104>
    8780:	e2423004 	sub	r3, r2, #4
    8784:	e3c33003 	bic	r3, r3, #3
    8788:	e2833004 	add	r3, r3, #4
    878c:	e08c3003 	add	r3, ip, r3
    8790:	e48ce004 	str	lr, [ip], #4
    8794:	e153000c 	cmp	r3, ip
    8798:	1afffffc 	bne	8790 <memset+0xb0>
    879c:	e2022003 	and	r2, r2, #3
    87a0:	e3520000 	cmp	r2, #0
    87a4:	0a000004 	beq	87bc <memset+0xdc>
    87a8:	e20110ff 	and	r1, r1, #255	; 0xff
    87ac:	e0832002 	add	r2, r3, r2
    87b0:	e4c31001 	strb	r1, [r3], #1
    87b4:	e1520003 	cmp	r2, r3
    87b8:	1afffffc 	bne	87b0 <memset+0xd0>
    87bc:	e8bd4030 	pop	{r4, r5, lr}
    87c0:	e12fff1e 	bx	lr
    87c4:	e3520000 	cmp	r2, #0
    87c8:	012fff1e 	bxeq	lr
    87cc:	e20110ff 	and	r1, r1, #255	; 0xff
    87d0:	e0832002 	add	r2, r3, r2
    87d4:	e4c31001 	strb	r1, [r3], #1
    87d8:	e1520003 	cmp	r2, r3
    87dc:	1afffffc 	bne	87d4 <memset+0xf4>
    87e0:	e12fff1e 	bx	lr
    87e4:	e1a0300c 	mov	r3, ip
    87e8:	eaffffec 	b	87a0 <memset+0xc0>
    87ec:	e1a03000 	mov	r3, r0
    87f0:	eaffffc8 	b	8718 <memset+0x38>
    87f4:	e1a0c003 	mov	ip, r3
    87f8:	eaffffe0 	b	8780 <memset+0xa0>

Disassembly of section .text.startup:

000087fc <main>:
    87fc:	e92d4ff0 	push	{r4, r5, r6, r7, r8, r9, sl, fp, lr}
    8800:	e24dd00c 	sub	sp, sp, #12
    8804:	e3a040ac 	mov	r4, #172	; 0xac
    8808:	ebfffe35 	bl	80e4 <enable_cache>
    880c:	e3a0809c 	mov	r8, #156	; 0x9c
    8810:	ebfffeb0 	bl	82d8 <init_fb>
    8814:	ebffff34 	bl	84ec <draw_frame>
    8818:	e3a020ff 	mov	r2, #255	; 0xff
    881c:	e3a00000 	mov	r0, #0
    8820:	e1a01002 	mov	r1, r2
    8824:	ebfffef6 	bl	8404 <pack_color>
    8828:	e3a02000 	mov	r2, #0
    882c:	e1a06000 	mov	r6, r0
    8830:	e1a01002 	mov	r1, r2
    8834:	e1a00002 	mov	r0, r2
    8838:	ebfffef1 	bl	8404 <pack_color>
    883c:	e1a07000 	mov	r7, r0
    8840:	e3043240 	movw	r3, #16960	; 0x4240
    8844:	e340300f 	movt	r3, #15
    8848:	e3090680 	movw	r0, #38528	; 0x9680
    884c:	e3400098 	movt	r0, #152	; 0x98
    8850:	e58d3004 	str	r3, [sp, #4]
    8854:	ebfffdf4 	bl	802c <delay>
    8858:	e248a010 	sub	sl, r8, #16
    885c:	e3a09f63 	mov	r9, #396	; 0x18c
    8860:	e1a0500a 	mov	r5, sl
    8864:	e1a01005 	mov	r1, r5
    8868:	e1a02006 	mov	r2, r6
    886c:	e1a00009 	mov	r0, r9
    8870:	e2855001 	add	r5, r5, #1
    8874:	ebfffe86 	bl	8294 <fb_pixel>
    8878:	e1550008 	cmp	r5, r8
    887c:	1afffff8 	bne	8864 <main+0x68>
    8880:	e2899001 	add	r9, r9, #1
    8884:	e3590f67 	cmp	r9, #412	; 0x19c
    8888:	1afffff4 	bne	8860 <main+0x64>
    888c:	e3a09f5f 	mov	r9, #380	; 0x17c
    8890:	e1a05008 	mov	r5, r8
    8894:	e1a01005 	mov	r1, r5
    8898:	e1a02006 	mov	r2, r6
    889c:	e1a00009 	mov	r0, r9
    88a0:	e2855001 	add	r5, r5, #1
    88a4:	ebfffe7a 	bl	8294 <fb_pixel>
    88a8:	e1550004 	cmp	r5, r4
    88ac:	1afffff8 	bne	8894 <main+0x98>
    88b0:	e2899001 	add	r9, r9, #1
    88b4:	e3590f63 	cmp	r9, #396	; 0x18c
    88b8:	1afffff4 	bne	8890 <main+0x94>
    88bc:	e1a0b009 	mov	fp, r9
    88c0:	e1a05008 	mov	r5, r8
    88c4:	e1a01005 	mov	r1, r5
    88c8:	e1a02006 	mov	r2, r6
    88cc:	e1a0000b 	mov	r0, fp
    88d0:	e2855001 	add	r5, r5, #1
    88d4:	ebfffe6e 	bl	8294 <fb_pixel>
    88d8:	e1550004 	cmp	r5, r4
    88dc:	1afffff8 	bne	88c4 <main+0xc8>
    88e0:	e28bb001 	add	fp, fp, #1
    88e4:	e35b0f67 	cmp	fp, #412	; 0x19c
    88e8:	1afffff4 	bne	88c0 <main+0xc4>
    88ec:	e1a05008 	mov	r5, r8
    88f0:	e1a01005 	mov	r1, r5
    88f4:	e1a02006 	mov	r2, r6
    88f8:	e1a0000b 	mov	r0, fp
    88fc:	e2855001 	add	r5, r5, #1
    8900:	ebfffe63 	bl	8294 <fb_pixel>
    8904:	e1550004 	cmp	r5, r4
    8908:	1afffff8 	bne	88f0 <main+0xf4>
    890c:	e28bb001 	add	fp, fp, #1
    8910:	e35b0f6b 	cmp	fp, #428	; 0x1ac
    8914:	1afffff4 	bne	88ec <main+0xf0>
    8918:	e59d0004 	ldr	r0, [sp, #4]
    891c:	ebfffdc2 	bl	802c <delay>
    8920:	e3580f73 	cmp	r8, #460	; 0x1cc
    8924:	0a00002f 	beq	89e8 <main+0x1ec>
    8928:	e1a0500a 	mov	r5, sl
    892c:	e1a01005 	mov	r1, r5
    8930:	e1a02007 	mov	r2, r7
    8934:	e1a00009 	mov	r0, r9
    8938:	e2855001 	add	r5, r5, #1
    893c:	ebfffe54 	bl	8294 <fb_pixel>
    8940:	e1550008 	cmp	r5, r8
    8944:	1afffff8 	bne	892c <main+0x130>
    8948:	e2899001 	add	r9, r9, #1
    894c:	e3590f67 	cmp	r9, #412	; 0x19c
    8950:	1afffff4 	bne	8928 <main+0x12c>
    8954:	e3a09f5f 	mov	r9, #380	; 0x17c
    8958:	e1a05008 	mov	r5, r8
    895c:	e1a01005 	mov	r1, r5
    8960:	e1a02007 	mov	r2, r7
    8964:	e1a00009 	mov	r0, r9
    8968:	e2855001 	add	r5, r5, #1
    896c:	ebfffe48 	bl	8294 <fb_pixel>
    8970:	e1550004 	cmp	r5, r4
    8974:	1afffff8 	bne	895c <main+0x160>
    8978:	e2899001 	add	r9, r9, #1
    897c:	e3590f63 	cmp	r9, #396	; 0x18c
    8980:	1afffff4 	bne	8958 <main+0x15c>
    8984:	e1a05008 	mov	r5, r8
    8988:	e1a01005 	mov	r1, r5
    898c:	e1a02007 	mov	r2, r7
    8990:	e1a00009 	mov	r0, r9
    8994:	e2855001 	add	r5, r5, #1
    8998:	ebfffe3d 	bl	8294 <fb_pixel>
    899c:	e1550004 	cmp	r5, r4
    89a0:	1afffff8 	bne	8988 <main+0x18c>
    89a4:	e2899001 	add	r9, r9, #1
    89a8:	e3590f67 	cmp	r9, #412	; 0x19c
    89ac:	1afffff4 	bne	8984 <main+0x188>
    89b0:	e1a05008 	mov	r5, r8
    89b4:	e1a01005 	mov	r1, r5
    89b8:	e1a02007 	mov	r2, r7
    89bc:	e1a00009 	mov	r0, r9
    89c0:	e2855001 	add	r5, r5, #1
    89c4:	ebfffe32 	bl	8294 <fb_pixel>
    89c8:	e1550004 	cmp	r5, r4
    89cc:	1afffff8 	bne	89b4 <main+0x1b8>
    89d0:	e2899001 	add	r9, r9, #1
    89d4:	e3590f6b 	cmp	r9, #428	; 0x1ac
    89d8:	1afffff4 	bne	89b0 <main+0x1b4>
    89dc:	e2888010 	add	r8, r8, #16
    89e0:	e2844010 	add	r4, r4, #16
    89e4:	eaffff9b 	b	8858 <main+0x5c>
    89e8:	eafffffe 	b	89e8 <main+0x1ec>
